---
triple:          'arm64-apple-darwin'
binary-path:     '/Users/jan/Documents/code/AlgorithmEngineering/output/ex6'
relocations:
  - { offsetInCU: 0x7F93, offset: 0x7F93, size: 0x8, addend: 0x0, symName: __ZNSt3__124__put_character_sequenceB8ue170006IcNS_11char_traitsIcEEEERNS_13basic_ostreamIT_T0_EES7_PKS4_m, symObjAddr: 0x7A58, symBinAddr: 0x1000092C8, symSize: 0x1F4 }
  - { offsetInCU: 0x8DF1, offset: 0x8DF1, size: 0x8, addend: 0x0, symName: __ZNSt3__16copy_nB8ue170006IPKcmPcEENS_9enable_ifIXsr37__has_random_access_iterator_categoryIT_EE5valueET1_E4typeES5_T0_S6_, symObjAddr: 0x8E94, symBinAddr: 0x10000A704, symSize: 0x44 }
  - { offsetInCU: 0x9D8C, offset: 0x9D8C, size: 0x8, addend: 0x0, symName: __ZNSt3__1plB8ue170006IcNS_11char_traitsIcEENS_9allocatorIcEEEENS_12basic_stringIT_T0_T1_EERKS9_PKS6_, symObjAddr: 0x310, symBinAddr: 0x100001B80, symSize: 0x11C }
  - { offsetInCU: 0xAB5C, offset: 0xAB5C, size: 0x8, addend: 0x0, symName: __ZNSt3__1lsB8ue170006INS_11char_traitsIcEEEERNS_13basic_ostreamIcT_EES6_PKc, symObjAddr: 0x5E0, symBinAddr: 0x100001E50, symSize: 0x48 }
  - { offsetInCU: 0xABA2, offset: 0xABA2, size: 0x8, addend: 0x0, symName: __ZNSt3__14endlB8ue170006IcNS_11char_traitsIcEEEERNS_13basic_ostreamIT_T0_EES7_, symObjAddr: 0x654, symBinAddr: 0x100001EC4, symSize: 0x58 }
  - { offsetInCU: 0xABED, offset: 0xABED, size: 0x8, addend: 0x0, symName: __ZNSt3__112__to_addressB8ue170006INS_6vectorI4EdgeNS_9allocatorIS2_EEEEEEPT_S7_, symObjAddr: 0x155C, symBinAddr: 0x100002DCC, symSize: 0x14 }
  - { offsetInCU: 0xAC22, offset: 0xAC22, size: 0x8, addend: 0x0, symName: __ZNSt3__13maxB8ue170006ImEERKT_S3_S3_, symObjAddr: 0x18AC, symBinAddr: 0x10000311C, symSize: 0x2C }
  - { offsetInCU: 0xAC65, offset: 0xAC65, size: 0x8, addend: 0x0, symName: __ZNSt3__13minB8ue170006ImEERKT_S3_S3_, symObjAddr: 0x18D8, symBinAddr: 0x100003148, symSize: 0x2C }
  - { offsetInCU: 0xAEA9, offset: 0xAEA9, size: 0x8, addend: 0x0, symName: __ZNSt3__13minB8ue170006ImNS_6__lessIvvEEEERKT_S5_S5_T0_, symObjAddr: 0x1964, symBinAddr: 0x1000031D4, symSize: 0x54 }
  - { offsetInCU: 0xAF48, offset: 0xAF48, size: 0x8, addend: 0x0, symName: __ZNSt3__120__throw_length_errorB8ue170006EPKc, symObjAddr: 0x1A44, symBinAddr: 0x1000032B4, symSize: 0x64 }
  - { offsetInCU: 0xAF72, offset: 0xAF72, size: 0x8, addend: 0x0, symName: __ZNSt3__13maxB8ue170006ImNS_6__lessIvvEEEERKT_S5_S5_T0_, symObjAddr: 0x1B88, symBinAddr: 0x1000033F8, symSize: 0x54 }
  - { offsetInCU: 0xAFCC, offset: 0xAFCC, size: 0x8, addend: 0x0, symName: __ZNSt3__119__allocate_at_leastB8ue170006INS_9allocatorINS_6vectorI4EdgeNS1_IS3_EEEEEEEENS_19__allocation_resultINS_16allocator_traitsIT_E7pointerEEERS9_m, symObjAddr: 0x1CF8, symBinAddr: 0x100003568, symSize: 0x40 }
  - { offsetInCU: 0xB00F, offset: 0xB00F, size: 0x8, addend: 0x0, symName: __ZNSt3__130__libcpp_is_constant_evaluatedB8ue170006Ev, symObjAddr: 0x1EB0, symBinAddr: 0x100003720, symSize: 0xC }
  - { offsetInCU: 0xB02C, offset: 0xB02C, size: 0x8, addend: 0x0, symName: __ZNSt3__117__libcpp_allocateB8ue170006Emm, symObjAddr: 0x1EBC, symBinAddr: 0x10000372C, symSize: 0x28 }
  - { offsetInCU: 0xB069, offset: 0xB069, size: 0x8, addend: 0x0, symName: __ZNSt3__121__libcpp_operator_newB8ue170006IJmEEEPvDpT_, symObjAddr: 0x1EE4, symBinAddr: 0x100003754, symSize: 0x24 }
  - { offsetInCU: 0xB0A2, offset: 0xB0A2, size: 0x8, addend: 0x0, symName: __ZNSt3__142__uninitialized_allocator_move_if_noexceptB8ue170006INS_9allocatorINS_6vectorI4EdgeNS1_IS3_EEEEEENS_16reverse_iteratorIPS5_EES9_S9_EET2_RT_T0_T1_SA_, symObjAddr: 0x2114, symBinAddr: 0x100003984, symSize: 0x134 }
  - { offsetInCU: 0xB142, offset: 0xB142, size: 0x8, addend: 0x0, symName: __ZNSt3__14swapB8ue170006IPNS_6vectorI4EdgeNS_9allocatorIS2_EEEEEEvRT_S8_, symObjAddr: 0x2294, symBinAddr: 0x100003B04, symSize: 0x3C }
  - { offsetInCU: 0xB193, offset: 0xB193, size: 0x8, addend: 0x0, symName: __ZNSt3__122__make_exception_guardB8ue170006INS_29_AllocatorDestroyRangeReverseINS_9allocatorINS_6vectorI4EdgeNS2_IS4_EEEEEENS_16reverse_iteratorIPS6_EEEEEENS_28__exception_guard_exceptionsIT_EESD_, symObjAddr: 0x23E0, symBinAddr: 0x100003C50, symSize: 0x4C }
  - { offsetInCU: 0xB1C9, offset: 0xB1C9, size: 0x8, addend: 0x0, symName: __ZNSt3__1neB8ue170006IPNS_6vectorI4EdgeNS_9allocatorIS2_EEEES6_EEbRKNS_16reverse_iteratorIT_EERKNS7_IT0_EE, symObjAddr: 0x2470, symBinAddr: 0x100003CE0, symSize: 0x48 }
  - { offsetInCU: 0xB215, offset: 0xB215, size: 0x8, addend: 0x0, symName: __ZNSt3__112__to_addressB8ue170006INS_16reverse_iteratorIPNS_6vectorI4EdgeNS_9allocatorIS3_EEEEEEvEEu7__decayIDTclsr19__to_address_helperIT_EE6__callclsr3stdE7declvalIRKS9_EEEEESB_, symObjAddr: 0x24EC, symBinAddr: 0x100003D5C, symSize: 0x24 }
  - { offsetInCU: 0xB24B, offset: 0xB24B, size: 0x8, addend: 0x0, symName: __ZNSt3__122__make_exception_guardB8ue170006INS_6vectorI4EdgeNS_9allocatorIS2_EEE16__destroy_vectorEEENS_28__exception_guard_exceptionsIT_EES8_, symObjAddr: 0x2924, symBinAddr: 0x100004194, symSize: 0x40 }
  - { offsetInCU: 0xB280, offset: 0xB280, size: 0x8, addend: 0x0, symName: __ZNSt3__119__allocate_at_leastB8ue170006INS_9allocatorI4EdgeEEEENS_19__allocation_resultINS_16allocator_traitsIT_E7pointerEEERS6_m, symObjAddr: 0x2C30, symBinAddr: 0x1000044A0, symSize: 0x40 }
  - { offsetInCU: 0xB2C3, offset: 0xB2C3, size: 0x8, addend: 0x0, symName: __ZNSt3__112__to_addressB8ue170006I4EdgeEEPT_S3_, symObjAddr: 0x2F48, symBinAddr: 0x1000047B8, symSize: 0x14 }
  - { offsetInCU: 0xB2F8, offset: 0xB2F8, size: 0x8, addend: 0x0, symName: __ZNSt3__130__uninitialized_allocator_copyB8ue170006INS_9allocatorI4EdgeEEPS2_S4_S4_EET2_RT_T0_T1_S5_, symObjAddr: 0x2FF8, symBinAddr: 0x100004868, symSize: 0x80 }
  - { offsetInCU: 0xB395, offset: 0xB395, size: 0x8, addend: 0x0, symName: __ZNSt3__114__unwrap_rangeB8ue170006IP4EdgeS2_EENS_4pairIT0_S4_EET_S6_, symObjAddr: 0x30F0, symBinAddr: 0x100004960, symSize: 0x60 }
  - { offsetInCU: 0xB3E1, offset: 0xB3E1, size: 0x8, addend: 0x0, symName: __ZNSt3__135__uninitialized_allocator_copy_implB8ue170006INS_9allocatorI4EdgeEEPS2_S4_S4_EET2_RT_T0_T1_S5_, symObjAddr: 0x3150, symBinAddr: 0x1000049C0, symSize: 0xFC }
  - { offsetInCU: 0xB47F, offset: 0xB47F, size: 0x8, addend: 0x0, symName: __ZNSt3__113__unwrap_iterB8ue170006IP4EdgeNS_18__unwrap_iter_implIS2_Lb1EEELi0EEEDTclsrT0_8__unwrapclsr3stdE7declvalIT_EEEES6_, symObjAddr: 0x324C, symBinAddr: 0x100004ABC, symSize: 0x24 }
  - { offsetInCU: 0xB4C3, offset: 0xB4C3, size: 0x8, addend: 0x0, symName: __ZNSt3__113__rewrap_iterB8ue170006IP4EdgeS2_NS_18__unwrap_iter_implIS2_Lb1EEEEET_S5_T0_, symObjAddr: 0x3270, symBinAddr: 0x100004AE0, symSize: 0x50 }
  - { offsetInCU: 0xB518, offset: 0xB518, size: 0x8, addend: 0x0, symName: __ZNSt3__19make_pairB8ue170006IP4EdgeS2_EENS_4pairINS_18__unwrap_ref_decayIT_E4typeENS4_IT0_E4typeEEEOS5_OS8_, symObjAddr: 0x32C0, symBinAddr: 0x100004B30, symSize: 0x38 }
  - { offsetInCU: 0xB614, offset: 0xB614, size: 0x8, addend: 0x0, symName: __ZNSt3__122__make_exception_guardB8ue170006INS_29_AllocatorDestroyRangeReverseINS_9allocatorI4EdgeEEPS3_EEEENS_28__exception_guard_exceptionsIT_EES8_, symObjAddr: 0x3368, symBinAddr: 0x100004BD8, symSize: 0x4C }
  - { offsetInCU: 0xB64A, offset: 0xB64A, size: 0x8, addend: 0x0, symName: __ZNSt3__119__allocator_destroyB8ue170006INS_9allocatorI4EdgeEENS_16reverse_iteratorIPS2_EES6_EEvRT_T0_T1_, symObjAddr: 0x35F0, symBinAddr: 0x100004E60, symSize: 0x70 }
  - { offsetInCU: 0xB6AD, offset: 0xB6AD, size: 0x8, addend: 0x0, symName: __ZNSt3__1neB8ue170006IP4EdgeS2_EEbRKNS_16reverse_iteratorIT_EERKNS3_IT0_EE, symObjAddr: 0x3694, symBinAddr: 0x100004F04, symSize: 0x48 }
  - { offsetInCU: 0xB6F9, offset: 0xB6F9, size: 0x8, addend: 0x0, symName: __ZNSt3__112__to_addressB8ue170006INS_16reverse_iteratorIP4EdgeEEvEEu7__decayIDTclsr19__to_address_helperIT_EE6__callclsr3stdE7declvalIRKS5_EEEEES7_, symObjAddr: 0x3708, symBinAddr: 0x100004F78, symSize: 0x24 }
  - { offsetInCU: 0xB7AB, offset: 0xB7AB, size: 0x8, addend: 0x0, symName: __ZNSt3__119__libcpp_deallocateB8ue170006EPvmm, symObjAddr: 0x3BF0, symBinAddr: 0x100005460, symSize: 0x30 }
  - { offsetInCU: 0xB7F3, offset: 0xB7F3, size: 0x8, addend: 0x0, symName: __ZNSt3__127__do_deallocate_handle_sizeB8ue170006IJEEEvPvmDpT_, symObjAddr: 0x3C20, symBinAddr: 0x100005490, symSize: 0x28 }
  - { offsetInCU: 0xB831, offset: 0xB831, size: 0x8, addend: 0x0, symName: __ZNSt3__124__libcpp_operator_deleteB8ue170006IJPvEEEvDpT_, symObjAddr: 0x3C48, symBinAddr: 0x1000054B8, symSize: 0x24 }
  - { offsetInCU: 0xB88F, offset: 0xB88F, size: 0x8, addend: 0x0, symName: __ZNSt3__119__allocator_destroyB8ue170006INS_9allocatorINS_6vectorI4EdgeNS1_IS3_EEEEEENS_16reverse_iteratorINS7_IPS5_EEEESA_EEvRT_T0_T1_, symObjAddr: 0x3DD8, symBinAddr: 0x100005648, symSize: 0x70 }
  - { offsetInCU: 0xB8F4, offset: 0xB8F4, size: 0x8, addend: 0x0, symName: __ZNSt3__1neB8ue170006INS_16reverse_iteratorIPNS_6vectorI4EdgeNS_9allocatorIS3_EEEEEES8_EEbRKNS1_IT_EERKNS1_IT0_EE, symObjAddr: 0x3E84, symBinAddr: 0x1000056F4, symSize: 0x60 }
  - { offsetInCU: 0xB940, offset: 0xB940, size: 0x8, addend: 0x0, symName: __ZNSt3__112__to_addressB8ue170006INS_16reverse_iteratorINS1_IPNS_6vectorI4EdgeNS_9allocatorIS3_EEEEEEEEvEEu7__decayIDTclsr19__to_address_helperIT_EE6__callclsr3stdE7declvalIRKSA_EEEEESC_, symObjAddr: 0x3F10, symBinAddr: 0x100005780, symSize: 0x24 }
  - { offsetInCU: 0xB99F, offset: 0xB99F, size: 0x8, addend: 0x0, symName: __ZNSt3__142__uninitialized_allocator_move_if_noexceptB8ue170006INS_9allocatorI4EdgeEENS_16reverse_iteratorIPS2_EES6_S2_vEET1_RT_T0_SA_S7_, symObjAddr: 0x4DA8, symBinAddr: 0x100006618, symSize: 0xE8 }
  - { offsetInCU: 0xBA1C, offset: 0xBA1C, size: 0x8, addend: 0x0, symName: __ZNSt3__14swapB8ue170006IP4EdgeEEvRT_S4_, symObjAddr: 0x4E90, symBinAddr: 0x100006700, symSize: 0x3C }
  - { offsetInCU: 0xBA92, offset: 0xBA92, size: 0x8, addend: 0x0, symName: __ZNSt3__114__construct_atB8ue170006I4EdgeJS1_EPS1_EEPT_S4_DpOT0_, symObjAddr: 0x4ECC, symBinAddr: 0x10000673C, symSize: 0x34 }
  - { offsetInCU: 0xBB02, offset: 0xBB02, size: 0x8, addend: 0x0, symName: __ZNSt3__14moveB8ue170006INS_16reverse_iteratorIP4EdgeEES4_EET0_T_S6_S5_, symObjAddr: 0x4F00, symBinAddr: 0x100006770, symSize: 0x78 }
  - { offsetInCU: 0xBB5C, offset: 0xBB5C, size: 0x8, addend: 0x0, symName: __ZNSt3__16__moveB8ue170006INS_17_ClassicAlgPolicyENS_16reverse_iteratorIP4EdgeEES5_S5_EENS_4pairIT0_T2_EES7_T1_S8_, symObjAddr: 0x4F78, symBinAddr: 0x1000067E8, symSize: 0x64 }
  - { offsetInCU: 0xBBC8, offset: 0xBBC8, size: 0x8, addend: 0x0, symName: __ZNSt3__123__dispatch_copy_or_moveB8ue170006INS_17_ClassicAlgPolicyENS_11__move_loopIS1_EENS_14__move_trivialENS_16reverse_iteratorIP4EdgeEES8_S8_EENS_4pairIT2_T4_EESA_T3_SB_, symObjAddr: 0x4FDC, symBinAddr: 0x10000684C, symSize: 0x64 }
  - { offsetInCU: 0xBC46, offset: 0xBC46, size: 0x8, addend: 0x0, symName: __ZNSt3__121__unwrap_and_dispatchB8ue170006INS_10__overloadINS_11__move_loopINS_17_ClassicAlgPolicyEEENS_14__move_trivialEEENS_16reverse_iteratorIP4EdgeEESA_SA_Li0EEENS_4pairIT0_T2_EESC_T1_SD_, symObjAddr: 0x5040, symBinAddr: 0x1000068B0, symSize: 0x12C }
  - { offsetInCU: 0xBCD6, offset: 0xBCD6, size: 0x8, addend: 0x0, symName: __ZNSt3__114__unwrap_rangeB8ue170006INS_16reverse_iteratorIP4EdgeEES4_EENS_4pairIT0_S6_EET_S8_, symObjAddr: 0x516C, symBinAddr: 0x1000069DC, symSize: 0x84 }
  - { offsetInCU: 0xBE69, offset: 0xBE69, size: 0x8, addend: 0x0, symName: __ZNSt3__113__unwrap_iterB8ue170006INS_16reverse_iteratorIP4EdgeEENS_18__unwrap_iter_implIS4_Lb0EEELi0EEEDTclsrT0_8__unwrapclsr3stdE7declvalIT_EEEES8_, symObjAddr: 0x5298, symBinAddr: 0x100006B08, symSize: 0x44 }
  - { offsetInCU: 0xBEAD, offset: 0xBEAD, size: 0x8, addend: 0x0, symName: __ZNSt3__19make_pairB8ue170006INS_16reverse_iteratorIP4EdgeEES4_EENS_4pairINS_18__unwrap_ref_decayIT_E4typeENS6_IT0_E4typeEEEOS7_OSA_, symObjAddr: 0x52DC, symBinAddr: 0x100006B4C, symSize: 0x38 }
  - { offsetInCU: 0xBEFC, offset: 0xBEFC, size: 0x8, addend: 0x0, symName: __ZNSt3__114__rewrap_rangeB8ue170006INS_16reverse_iteratorIP4EdgeEES4_EET_S5_T0_, symObjAddr: 0x5314, symBinAddr: 0x100006B84, symSize: 0x5C }
  - { offsetInCU: 0xBF48, offset: 0xBF48, size: 0x8, addend: 0x0, symName: __ZNSt3__113__rewrap_iterB8ue170006INS_16reverse_iteratorIP4EdgeEES4_NS_18__unwrap_iter_implIS4_Lb0EEEEET_S7_T0_, symObjAddr: 0x5370, symBinAddr: 0x100006BE0, symSize: 0x88 }
  - { offsetInCU: 0xC082, offset: 0xC082, size: 0x8, addend: 0x0, symName: __ZNSt3__1neB8ue170006IP4EdgeEEbRKNS_11__wrap_iterIT_EES7_, symObjAddr: 0x57FC, symBinAddr: 0x10000706C, symSize: 0x34 }
  - { offsetInCU: 0xC0C5, offset: 0xC0C5, size: 0x8, addend: 0x0, symName: __ZNSt3__122__make_exception_guardB8ue170006INS_6vectorIiNS_9allocatorIiEEE16__destroy_vectorEEENS_28__exception_guard_exceptionsIT_EES7_, symObjAddr: 0x5B54, symBinAddr: 0x1000073C4, symSize: 0x40 }
  - { offsetInCU: 0xC0FA, offset: 0xC0FA, size: 0x8, addend: 0x0, symName: __ZNSt3__119__allocate_at_leastB8ue170006INS_9allocatorIiEEEENS_19__allocation_resultINS_16allocator_traitsIT_E7pointerEEERS5_m, symObjAddr: 0x5E9C, symBinAddr: 0x10000770C, symSize: 0x40 }
  - { offsetInCU: 0xC13D, offset: 0xC13D, size: 0x8, addend: 0x0, symName: __ZNSt3__112__to_addressB8ue170006IiEEPT_S2_, symObjAddr: 0x61EC, symBinAddr: 0x100007A5C, symSize: 0x14 }
  - { offsetInCU: 0xC172, offset: 0xC172, size: 0x8, addend: 0x0, symName: __ZNSt3__1eqB8ue170006IP4EdgeEEbRKNS_11__wrap_iterIT_EES7_, symObjAddr: 0x6748, symBinAddr: 0x100007FB8, symSize: 0x48 }
  - { offsetInCU: 0xC1B5, offset: 0xC1B5, size: 0x8, addend: 0x0, symName: __ZNSt3__142__uninitialized_allocator_move_if_noexceptB8ue170006INS_9allocatorIiEENS_16reverse_iteratorIPiEES5_ivEET1_RT_T0_S9_S6_, symObjAddr: 0x6D80, symBinAddr: 0x1000085F0, symSize: 0xE8 }
  - { offsetInCU: 0xC232, offset: 0xC232, size: 0x8, addend: 0x0, symName: __ZNSt3__14swapB8ue170006IPiEEvRT_S3_, symObjAddr: 0x6EB4, symBinAddr: 0x100008724, symSize: 0x3C }
  - { offsetInCU: 0xC283, offset: 0xC283, size: 0x8, addend: 0x0, symName: __ZNSt3__1neB8ue170006IPiS1_EEbRKNS_16reverse_iteratorIT_EERKNS2_IT0_EE, symObjAddr: 0x6EF0, symBinAddr: 0x100008760, symSize: 0x48 }
  - { offsetInCU: 0xC2F4, offset: 0xC2F4, size: 0x8, addend: 0x0, symName: __ZNSt3__114__construct_atB8ue170006IiJiEPiEEPT_S3_DpOT0_, symObjAddr: 0x6F38, symBinAddr: 0x1000087A8, symSize: 0x2C }
  - { offsetInCU: 0xC364, offset: 0xC364, size: 0x8, addend: 0x0, symName: __ZNSt3__112__to_addressB8ue170006INS_16reverse_iteratorIPiEEvEEu7__decayIDTclsr19__to_address_helperIT_EE6__callclsr3stdE7declvalIRKS4_EEEEES6_, symObjAddr: 0x6F64, symBinAddr: 0x1000087D4, symSize: 0x24 }
  - { offsetInCU: 0xC39A, offset: 0xC39A, size: 0x8, addend: 0x0, symName: __ZNSt3__14moveB8ue170006INS_16reverse_iteratorIPiEES3_EET0_T_S5_S4_, symObjAddr: 0x6FD0, symBinAddr: 0x100008840, symSize: 0x78 }
  - { offsetInCU: 0xC41D, offset: 0xC41D, size: 0x8, addend: 0x0, symName: __ZNSt3__16__moveB8ue170006INS_17_ClassicAlgPolicyENS_16reverse_iteratorIPiEES4_S4_EENS_4pairIT0_T2_EES6_T1_S7_, symObjAddr: 0x70B8, symBinAddr: 0x100008928, symSize: 0x64 }
  - { offsetInCU: 0xC489, offset: 0xC489, size: 0x8, addend: 0x0, symName: __ZNSt3__123__dispatch_copy_or_moveB8ue170006INS_17_ClassicAlgPolicyENS_11__move_loopIS1_EENS_14__move_trivialENS_16reverse_iteratorIPiEES7_S7_EENS_4pairIT2_T4_EES9_T3_SA_, symObjAddr: 0x711C, symBinAddr: 0x10000898C, symSize: 0x64 }
  - { offsetInCU: 0xC507, offset: 0xC507, size: 0x8, addend: 0x0, symName: __ZNSt3__121__unwrap_and_dispatchB8ue170006INS_10__overloadINS_11__move_loopINS_17_ClassicAlgPolicyEEENS_14__move_trivialEEENS_16reverse_iteratorIPiEES9_S9_Li0EEENS_4pairIT0_T2_EESB_T1_SC_, symObjAddr: 0x7180, symBinAddr: 0x1000089F0, symSize: 0x12C }
  - { offsetInCU: 0xC597, offset: 0xC597, size: 0x8, addend: 0x0, symName: __ZNSt3__114__unwrap_rangeB8ue170006INS_16reverse_iteratorIPiEES3_EENS_4pairIT0_S5_EET_S7_, symObjAddr: 0x72AC, symBinAddr: 0x100008B1C, symSize: 0x84 }
  - { offsetInCU: 0xC690, offset: 0xC690, size: 0x8, addend: 0x0, symName: __ZNSt3__113__unwrap_iterB8ue170006INS_16reverse_iteratorIPiEENS_18__unwrap_iter_implIS3_Lb0EEELi0EEEDTclsrT0_8__unwrapclsr3stdE7declvalIT_EEEES7_, symObjAddr: 0x73D0, symBinAddr: 0x100008C40, symSize: 0x44 }
  - { offsetInCU: 0xC6D4, offset: 0xC6D4, size: 0x8, addend: 0x0, symName: __ZNSt3__19make_pairB8ue170006INS_16reverse_iteratorIPiEES3_EENS_4pairINS_18__unwrap_ref_decayIT_E4typeENS5_IT0_E4typeEEEOS6_OS9_, symObjAddr: 0x7414, symBinAddr: 0x100008C84, symSize: 0x38 }
  - { offsetInCU: 0xC723, offset: 0xC723, size: 0x8, addend: 0x0, symName: __ZNSt3__114__rewrap_rangeB8ue170006INS_16reverse_iteratorIPiEES3_EET_S4_T0_, symObjAddr: 0x744C, symBinAddr: 0x100008CBC, symSize: 0x5C }
  - { offsetInCU: 0xC76F, offset: 0xC76F, size: 0x8, addend: 0x0, symName: __ZNSt3__113__rewrap_iterB8ue170006INS_16reverse_iteratorIPiEES3_NS_18__unwrap_iter_implIS3_Lb0EEEEET_S6_T0_, symObjAddr: 0x74A8, symBinAddr: 0x100008D18, symSize: 0x88 }
  - { offsetInCU: 0xC830, offset: 0xC830, size: 0x8, addend: 0x0, symName: __ZNSt3__19use_facetB8ue170006INS_5ctypeIcEEEERKT_RKNS_6localeE, symObjAddr: 0x79F4, symBinAddr: 0x100009264, symSize: 0x2C }
  - { offsetInCU: 0xCCFD, offset: 0xCCFD, size: 0x8, addend: 0x0, symName: __ZNSt3__116__pad_and_outputB8ue170006IcNS_11char_traitsIcEEEENS_19ostreambuf_iteratorIT_T0_EES6_PKS4_S8_S8_RNS_8ios_baseES4_, symObjAddr: 0x7CB0, symBinAddr: 0x100009520, symSize: 0x248 }
  - { offsetInCU: 0xCDCC, offset: 0xCDCC, size: 0x8, addend: 0x0, symName: __ZNSt3__112__to_addressB8ue170006IKcEEPT_S3_, symObjAddr: 0x8220, symBinAddr: 0x100009A90, symSize: 0x14 }
  - { offsetInCU: 0xCE34, offset: 0xCE34, size: 0x8, addend: 0x0, symName: __ZNSt3__118__constexpr_strlenB8ue170006EPKc, symObjAddr: 0x84A0, symBinAddr: 0x100009D10, symSize: 0x24 }
  - { offsetInCU: 0xCE60, offset: 0xCE60, size: 0x8, addend: 0x0, symName: __ZNSt3__112__to_addressB8ue170006IcEEPT_S2_, symObjAddr: 0x85E0, symBinAddr: 0x100009E50, symSize: 0x14 }
  - { offsetInCU: 0xD0CA, offset: 0xD0CA, size: 0x8, addend: 0x0, symName: __ZNSt3__14copyB8ue170006IPKcPcEET0_T_S5_S4_, symObjAddr: 0x8ED8, symBinAddr: 0x10000A748, symSize: 0x40 }
  - { offsetInCU: 0xD124, offset: 0xD124, size: 0x8, addend: 0x0, symName: __ZNSt3__16__copyB8ue170006INS_17_ClassicAlgPolicyEPKcS3_PcEENS_4pairIT0_T2_EES6_T1_S7_, symObjAddr: 0x8F18, symBinAddr: 0x10000A788, symSize: 0x44 }
  - { offsetInCU: 0xD190, offset: 0xD190, size: 0x8, addend: 0x0, symName: __ZNSt3__123__dispatch_copy_or_moveB8ue170006INS_17_ClassicAlgPolicyENS_11__copy_loopIS1_EENS_14__copy_trivialEPKcS6_PcEENS_4pairIT2_T4_EES9_T3_SA_, symObjAddr: 0x8F5C, symBinAddr: 0x10000A7CC, symSize: 0x44 }
  - { offsetInCU: 0xD20E, offset: 0xD20E, size: 0x8, addend: 0x0, symName: __ZNSt3__121__unwrap_and_dispatchB8ue170006INS_10__overloadINS_11__copy_loopINS_17_ClassicAlgPolicyEEENS_14__copy_trivialEEEPKcS8_PcLi0EEENS_4pairIT0_T2_EESB_T1_SC_, symObjAddr: 0x8FA0, symBinAddr: 0x10000A810, symSize: 0xB4 }
  - { offsetInCU: 0xD29C, offset: 0xD29C, size: 0x8, addend: 0x0, symName: __ZNSt3__114__unwrap_rangeB8ue170006IPKcS2_EENS_4pairIT0_S4_EET_S6_, symObjAddr: 0x9054, symBinAddr: 0x10000A8C4, symSize: 0x60 }
  - { offsetInCU: 0xD3DB, offset: 0xD3DB, size: 0x8, addend: 0x0, symName: __ZNSt3__113__unwrap_iterB8ue170006IPcNS_18__unwrap_iter_implIS1_Lb1EEELi0EEEDTclsrT0_8__unwrapclsr3stdE7declvalIT_EEEES5_, symObjAddr: 0x90FC, symBinAddr: 0x10000A96C, symSize: 0x24 }
  - { offsetInCU: 0xD41F, offset: 0xD41F, size: 0x8, addend: 0x0, symName: __ZNSt3__19make_pairB8ue170006IPKcPcEENS_4pairINS_18__unwrap_ref_decayIT_E4typeENS5_IT0_E4typeEEEOS6_OS9_, symObjAddr: 0x9120, symBinAddr: 0x10000A990, symSize: 0x38 }
  - { offsetInCU: 0xD46E, offset: 0xD46E, size: 0x8, addend: 0x0, symName: __ZNSt3__114__rewrap_rangeB8ue170006IPKcS2_EET_S3_T0_, symObjAddr: 0x9158, symBinAddr: 0x10000A9C8, symSize: 0x2C }
  - { offsetInCU: 0xD4BA, offset: 0xD4BA, size: 0x8, addend: 0x0, symName: __ZNSt3__113__rewrap_iterB8ue170006IPcS1_NS_18__unwrap_iter_implIS1_Lb1EEEEET_S4_T0_, symObjAddr: 0x9184, symBinAddr: 0x10000A9F4, symSize: 0x50 }
  - { offsetInCU: 0xD50F, offset: 0xD50F, size: 0x8, addend: 0x0, symName: __ZNSt3__19make_pairB8ue170006IPKcS2_EENS_4pairINS_18__unwrap_ref_decayIT_E4typeENS4_IT0_E4typeEEEOS5_OS8_, symObjAddr: 0x91D4, symBinAddr: 0x10000AA44, symSize: 0x38 }
  - { offsetInCU: 0xD55E, offset: 0xD55E, size: 0x8, addend: 0x0, symName: __ZNSt3__113__unwrap_iterB8ue170006IPKcNS_18__unwrap_iter_implIS2_Lb1EEELi0EEEDTclsrT0_8__unwrapclsr3stdE7declvalIT_EEEES6_, symObjAddr: 0x920C, symBinAddr: 0x10000AA7C, symSize: 0x24 }
  - { offsetInCU: 0xD6A2, offset: 0xD6A2, size: 0x8, addend: 0x0, symName: __ZNSt3__119__copy_trivial_implB8ue170006IKccEENS_4pairIPT_PT0_EES4_S4_S6_, symObjAddr: 0x92C4, symBinAddr: 0x10000AB34, symSize: 0x78 }
  - { offsetInCU: 0xD70A, offset: 0xD70A, size: 0x8, addend: 0x0, symName: __ZNSt3__119__constexpr_memmoveB8ue170006IcKcLi0EEEPT_S3_PT0_NS_15__element_countE, symObjAddr: 0x933C, symBinAddr: 0x10000ABAC, symSize: 0xA0 }
  - { offsetInCU: 0xD778, offset: 0xD778, size: 0x8, addend: 0x0, symName: __ZNSt3__19make_pairB8ue170006IRPKcPcEENS_4pairINS_18__unwrap_ref_decayIT_E4typeENS6_IT0_E4typeEEEOS7_OSA_, symObjAddr: 0x93DC, symBinAddr: 0x10000AC4C, symSize: 0x38 }
  - { offsetInCU: 0xD81A, offset: 0xD81A, size: 0x8, addend: 0x0, symName: __ZNSt3__113__rewrap_iterB8ue170006IPKcS2_NS_18__unwrap_iter_implIS2_Lb1EEEEET_S5_T0_, symObjAddr: 0x94A8, symBinAddr: 0x10000AD18, symSize: 0x50 }
  - { offsetInCU: 0xD86F, offset: 0xD86F, size: 0x8, addend: 0x0, symName: __ZNSt3__16fill_nB8ue170006IPcmcEET_S2_T0_RKT1_, symObjAddr: 0x9588, symBinAddr: 0x10000ADF8, symSize: 0x44 }
  - { offsetInCU: 0xD8D2, offset: 0xD8D2, size: 0x8, addend: 0x0, symName: __ZNSt3__18__fill_nB8ue170006IPcmcEET_S2_T0_RKT1_, symObjAddr: 0x95CC, symBinAddr: 0x10000AE3C, symSize: 0x64 }
  - { offsetInCU: 0xD935, offset: 0xD935, size: 0x8, addend: 0x0, symName: __ZNSt3__121__convert_to_integralB8ue170006Em, symObjAddr: 0x9630, symBinAddr: 0x10000AEA0, symSize: 0x14 }
  - { offsetInCU: 0xDC0D, offset: 0xDC0D, size: 0x8, addend: 0x0, symName: __ZSt28__throw_bad_array_new_lengthB8ue170006v, symObjAddr: 0x1E7C, symBinAddr: 0x1000036EC, symSize: 0x34 }
  - { offsetInCU: 0xE257, offset: 0xE257, size: 0x8, addend: 0x0, symName: __ZNSt3__16vectorINS0_I4EdgeNS_9allocatorIS1_EEEENS2_IS4_EEE26__swap_out_circular_bufferERNS_14__split_bufferIS4_RS5_EE, symObjAddr: 0x1380, symBinAddr: 0x100002BF0, symSize: 0x110 }
  - { offsetInCU: 0xE349, offset: 0xE349, size: 0x8, addend: 0x0, symName: __ZNSt3__16vectorI4EdgeNS_9allocatorIS1_EEE26__swap_out_circular_bufferERNS_14__split_bufferIS1_RS3_EE, symObjAddr: 0x4A34, symBinAddr: 0x1000062A4, symSize: 0x110 }
  - { offsetInCU: 0xE512, offset: 0xE512, size: 0x8, addend: 0x0, symName: __ZNSt3__16vectorIiNS_9allocatorIiEEE26__swap_out_circular_bufferERNS_14__split_bufferIiRS2_EE, symObjAddr: 0x6A18, symBinAddr: 0x100008288, symSize: 0x110 }
  - { offsetInCU: 0x1099E, offset: 0x1099E, size: 0x8, addend: 0x0, symName: _main, symObjAddr: 0x0, symBinAddr: 0x100001870, symSize: 0x2B0 }
  - { offsetInCU: 0x10A53, offset: 0x10A53, size: 0x8, addend: 0x0, symName: __ZNSt3__19basic_iosIcNS_11char_traitsIcEEE3tieB8ue170006EPNS_13basic_ostreamIcS2_EE, symObjAddr: 0x2B0, symBinAddr: 0x100001B20, symSize: 0x2C }
  - { offsetInCU: 0x10A9E, offset: 0x10A9E, size: 0x8, addend: 0x0, symName: __ZNSt3__112basic_stringIcNS_11char_traitsIcEENS_9allocatorIcEEEC1B8ue170006ILi0EEEPKc, symObjAddr: 0x2DC, symBinAddr: 0x100001B4C, symSize: 0x34 }
  - { offsetInCU: 0x10BFB, offset: 0x10BFB, size: 0x8, addend: 0x0, symName: __ZNSt3__114basic_ifstreamIcNS_11char_traitsIcEEEC1ERKNS_12basic_stringIcS2_NS_9allocatorIcEEEEj, symObjAddr: 0x42C, symBinAddr: 0x100001C9C, symSize: 0x17C }
  - { offsetInCU: 0x10C45, offset: 0x10C45, size: 0x8, addend: 0x0, symName: __ZNKSt3__114basic_ifstreamIcNS_11char_traitsIcEEE7is_openEv, symObjAddr: 0x5B4, symBinAddr: 0x100001E24, symSize: 0x2C }
  - { offsetInCU: 0x10C6D, offset: 0x10C6D, size: 0x8, addend: 0x0, symName: __ZNSt3__113basic_ostreamIcNS_11char_traitsIcEEElsB8ue170006EPFRS3_S4_E, symObjAddr: 0x628, symBinAddr: 0x100001E98, symSize: 0x2C }
  - { offsetInCU: 0x10D2C, offset: 0x10D2C, size: 0x8, addend: 0x0, symName: __ZN5GraphC1Eii, symObjAddr: 0x6AC, symBinAddr: 0x100001F1C, symSize: 0x3C }
  - { offsetInCU: 0x10D72, offset: 0x10D72, size: 0x8, addend: 0x0, symName: __ZN5Graph7addEdgeEiii, symObjAddr: 0x6E8, symBinAddr: 0x100001F58, symSize: 0x74 }
  - { offsetInCU: 0x10DC2, offset: 0x10DC2, size: 0x8, addend: 0x0, symName: __ZN5Graph12bellmannFordEv, symObjAddr: 0x75C, symBinAddr: 0x100001FCC, symSize: 0x468 }
  - { offsetInCU: 0x10EFE, offset: 0x10EFE, size: 0x8, addend: 0x0, symName: __ZN5GraphD1Ev, symObjAddr: 0xBC4, symBinAddr: 0x100002434, symSize: 0x2C }
  - { offsetInCU: 0x10F2F, offset: 0x10F2F, size: 0x8, addend: 0x0, symName: __ZNSt3__114basic_ifstreamIcNS_11char_traitsIcEEED1Ev, symObjAddr: 0xBF0, symBinAddr: 0x100002460, symSize: 0x70 }
  - { offsetInCU: 0x10F5C, offset: 0x10F5C, size: 0x8, addend: 0x0, symName: __ZN5GraphC2Eii, symObjAddr: 0xC60, symBinAddr: 0x1000024D0, symSize: 0x8C }
  - { offsetInCU: 0x10FA2, offset: 0x10FA2, size: 0x8, addend: 0x0, symName: __ZNSt3__16vectorINS0_I4EdgeNS_9allocatorIS1_EEEENS2_IS4_EEEC1B8ue170006Ev, symObjAddr: 0xCEC, symBinAddr: 0x10000255C, symSize: 0x2C }
  - { offsetInCU: 0x10FCC, offset: 0x10FCC, size: 0x8, addend: 0x0, symName: __ZNSt3__16vectorINS0_I4EdgeNS_9allocatorIS1_EEEENS2_IS4_EEE6resizeEm, symObjAddr: 0xD18, symBinAddr: 0x100002588, symSize: 0x9C }
  - { offsetInCU: 0x11012, offset: 0x11012, size: 0x8, addend: 0x0, symName: __ZNSt3__16vectorINS0_I4EdgeNS_9allocatorIS1_EEEENS2_IS4_EEED1B8ue170006Ev, symObjAddr: 0xDB4, symBinAddr: 0x100002624, symSize: 0x2C }
  - { offsetInCU: 0x1103C, offset: 0x1103C, size: 0x8, addend: 0x0, symName: __ZNSt3__16vectorINS0_I4EdgeNS_9allocatorIS1_EEEENS2_IS4_EEEC2B8ue170006Ev, symObjAddr: 0xDE0, symBinAddr: 0x100002650, symSize: 0x44 }
  - { offsetInCU: 0x11070, offset: 0x11070, size: 0x8, addend: 0x0, symName: __ZNSt3__117__compressed_pairIPNS_6vectorI4EdgeNS_9allocatorIS2_EEEENS3_IS5_EEEC1B8ue170006IDnNS_18__default_init_tagEEEOT_OT0_, symObjAddr: 0xE24, symBinAddr: 0x100002694, symSize: 0x3C }
  - { offsetInCU: 0x110C8, offset: 0x110C8, size: 0x8, addend: 0x0, symName: __ZNSt3__117__compressed_pairIPNS_6vectorI4EdgeNS_9allocatorIS2_EEEENS3_IS5_EEEC2B8ue170006IDnNS_18__default_init_tagEEEOT_OT0_, symObjAddr: 0xE60, symBinAddr: 0x1000026D0, symSize: 0x40 }
  - { offsetInCU: 0x11120, offset: 0x11120, size: 0x8, addend: 0x0, symName: __ZNSt3__122__compressed_pair_elemIPNS_6vectorI4EdgeNS_9allocatorIS2_EEEELi0ELb0EEC2B8ue170006IDnvEEOT_, symObjAddr: 0xEA0, symBinAddr: 0x100002710, symSize: 0x1C }
  - { offsetInCU: 0x11162, offset: 0x11162, size: 0x8, addend: 0x0, symName: __ZNSt3__122__compressed_pair_elemINS_9allocatorINS_6vectorI4EdgeNS1_IS3_EEEEEELi1ELb1EEC2B8ue170006ENS_18__default_init_tagE, symObjAddr: 0xEBC, symBinAddr: 0x10000272C, symSize: 0x2C }
  - { offsetInCU: 0x11197, offset: 0x11197, size: 0x8, addend: 0x0, symName: __ZNSt3__19allocatorINS_6vectorI4EdgeNS0_IS2_EEEEEC2B8ue170006Ev, symObjAddr: 0xEE8, symBinAddr: 0x100002758, symSize: 0x2C }
  - { offsetInCU: 0x111C1, offset: 0x111C1, size: 0x8, addend: 0x0, symName: __ZNSt3__116__non_trivial_ifILb1ENS_9allocatorINS_6vectorI4EdgeNS1_IS3_EEEEEEEC2B8ue170006Ev, symObjAddr: 0xF14, symBinAddr: 0x100002784, symSize: 0x14 }
  - { offsetInCU: 0x111EB, offset: 0x111EB, size: 0x8, addend: 0x0, symName: __ZNKSt3__16vectorINS0_I4EdgeNS_9allocatorIS1_EEEENS2_IS4_EEE4sizeB8ue170006Ev, symObjAddr: 0xF28, symBinAddr: 0x100002798, symSize: 0x28 }
  - { offsetInCU: 0x11211, offset: 0x11211, size: 0x8, addend: 0x0, symName: __ZNSt3__16vectorINS0_I4EdgeNS_9allocatorIS1_EEEENS2_IS4_EEE8__appendEm, symObjAddr: 0xF50, symBinAddr: 0x1000027C0, symSize: 0x110 }
  - { offsetInCU: 0x1126C, offset: 0x1126C, size: 0x8, addend: 0x0, symName: __ZNSt3__16vectorINS0_I4EdgeNS_9allocatorIS1_EEEENS2_IS4_EEE17__destruct_at_endB8ue170006EPS4_, symObjAddr: 0x1060, symBinAddr: 0x1000028D0, symSize: 0x4C }
  - { offsetInCU: 0x112B0, offset: 0x112B0, size: 0x8, addend: 0x0, symName: __ZNSt3__16vectorINS0_I4EdgeNS_9allocatorIS1_EEEENS2_IS4_EEE9__end_capB8ue170006Ev, symObjAddr: 0x10AC, symBinAddr: 0x10000291C, symSize: 0x28 }
  - { offsetInCU: 0x112D6, offset: 0x112D6, size: 0x8, addend: 0x0, symName: __ZNSt3__16vectorINS0_I4EdgeNS_9allocatorIS1_EEEENS2_IS4_EEE18__construct_at_endEm, symObjAddr: 0x10D4, symBinAddr: 0x100002944, symSize: 0xD0 }
  - { offsetInCU: 0x11349, offset: 0x11349, size: 0x8, addend: 0x0, symName: __ZNSt3__16vectorINS0_I4EdgeNS_9allocatorIS1_EEEENS2_IS4_EEE7__allocB8ue170006Ev, symObjAddr: 0x11A4, symBinAddr: 0x100002A14, symSize: 0x28 }
  - { offsetInCU: 0x1136F, offset: 0x1136F, size: 0x8, addend: 0x0, symName: __ZNKSt3__16vectorINS0_I4EdgeNS_9allocatorIS1_EEEENS2_IS4_EEE11__recommendB8ue170006Em, symObjAddr: 0x11CC, symBinAddr: 0x100002A3C, symSize: 0xB4 }
  - { offsetInCU: 0x113C4, offset: 0x113C4, size: 0x8, addend: 0x0, symName: __ZNSt3__114__split_bufferINS_6vectorI4EdgeNS_9allocatorIS2_EEEERNS3_IS5_EEEC1EmmS7_, symObjAddr: 0x1280, symBinAddr: 0x100002AF0, symSize: 0x44 }
  - { offsetInCU: 0x1141A, offset: 0x1141A, size: 0x8, addend: 0x0, symName: __ZNSt3__114__split_bufferINS_6vectorI4EdgeNS_9allocatorIS2_EEEERNS3_IS5_EEE18__construct_at_endEm, symObjAddr: 0x12C4, symBinAddr: 0x100002B34, symSize: 0xBC }
  - { offsetInCU: 0x1145F, offset: 0x1145F, size: 0x8, addend: 0x0, symName: __ZNSt3__114__split_bufferINS_6vectorI4EdgeNS_9allocatorIS2_EEEERNS3_IS5_EEED1Ev, symObjAddr: 0x1490, symBinAddr: 0x100002D00, symSize: 0x2C }
  - { offsetInCU: 0x1148B, offset: 0x1148B, size: 0x8, addend: 0x0, symName: __ZNSt3__117__compressed_pairIPNS_6vectorI4EdgeNS_9allocatorIS2_EEEENS3_IS5_EEE5firstB8ue170006Ev, symObjAddr: 0x14BC, symBinAddr: 0x100002D2C, symSize: 0x24 }
  - { offsetInCU: 0x114B1, offset: 0x114B1, size: 0x8, addend: 0x0, symName: __ZNSt3__122__compressed_pair_elemIPNS_6vectorI4EdgeNS_9allocatorIS2_EEEELi0ELb0EE5__getB8ue170006Ev, symObjAddr: 0x14E0, symBinAddr: 0x100002D50, symSize: 0x14 }
  - { offsetInCU: 0x114F0, offset: 0x114F0, size: 0x8, addend: 0x0, symName: __ZNSt3__16vectorINS0_I4EdgeNS_9allocatorIS1_EEEENS2_IS4_EEE21_ConstructTransactionC1B8ue170006ERS6_m, symObjAddr: 0x14F4, symBinAddr: 0x100002D64, symSize: 0x3C }
  - { offsetInCU: 0x11538, offset: 0x11538, size: 0x8, addend: 0x0, symName: __ZNSt3__116allocator_traitsINS_9allocatorINS_6vectorI4EdgeNS1_IS3_EEEEEEE9constructB8ue170006IS5_JEvEEvRS6_PT_DpOT0_, symObjAddr: 0x1530, symBinAddr: 0x100002DA0, symSize: 0x2C }
  - { offsetInCU: 0x1157A, offset: 0x1157A, size: 0x8, addend: 0x0, symName: __ZNSt3__16vectorINS0_I4EdgeNS_9allocatorIS1_EEEENS2_IS4_EEE21_ConstructTransactionD1B8ue170006Ev, symObjAddr: 0x1570, symBinAddr: 0x100002DE0, symSize: 0x2C }
  - { offsetInCU: 0x115A4, offset: 0x115A4, size: 0x8, addend: 0x0, symName: __ZNSt3__16vectorINS0_I4EdgeNS_9allocatorIS1_EEEENS2_IS4_EEE21_ConstructTransactionC2B8ue170006ERS6_m, symObjAddr: 0x159C, symBinAddr: 0x100002E0C, symSize: 0x4C }
  - { offsetInCU: 0x115EC, offset: 0x115EC, size: 0x8, addend: 0x0, symName: __ZNSt3__19allocatorINS_6vectorI4EdgeNS0_IS2_EEEEE9constructB8ue170006IS4_JEEEvPT_DpOT0_, symObjAddr: 0x15E8, symBinAddr: 0x100002E58, symSize: 0x28 }
  - { offsetInCU: 0x1162E, offset: 0x1162E, size: 0x8, addend: 0x0, symName: __ZNSt3__16vectorI4EdgeNS_9allocatorIS1_EEEC1B8ue170006Ev, symObjAddr: 0x1610, symBinAddr: 0x100002E80, symSize: 0x2C }
  - { offsetInCU: 0x11658, offset: 0x11658, size: 0x8, addend: 0x0, symName: __ZNSt3__16vectorI4EdgeNS_9allocatorIS1_EEEC2B8ue170006Ev, symObjAddr: 0x163C, symBinAddr: 0x100002EAC, symSize: 0x44 }
  - { offsetInCU: 0x11682, offset: 0x11682, size: 0x8, addend: 0x0, symName: __ZNSt3__117__compressed_pairIP4EdgeNS_9allocatorIS1_EEEC1B8ue170006IDnNS_18__default_init_tagEEEOT_OT0_, symObjAddr: 0x1680, symBinAddr: 0x100002EF0, symSize: 0x3C }
  - { offsetInCU: 0x116DA, offset: 0x116DA, size: 0x8, addend: 0x0, symName: __ZNSt3__117__compressed_pairIP4EdgeNS_9allocatorIS1_EEEC2B8ue170006IDnNS_18__default_init_tagEEEOT_OT0_, symObjAddr: 0x16BC, symBinAddr: 0x100002F2C, symSize: 0x40 }
  - { offsetInCU: 0x11732, offset: 0x11732, size: 0x8, addend: 0x0, symName: __ZNSt3__122__compressed_pair_elemIP4EdgeLi0ELb0EEC2B8ue170006IDnvEEOT_, symObjAddr: 0x16FC, symBinAddr: 0x100002F6C, symSize: 0x1C }
  - { offsetInCU: 0x11774, offset: 0x11774, size: 0x8, addend: 0x0, symName: __ZNSt3__122__compressed_pair_elemINS_9allocatorI4EdgeEELi1ELb1EEC2B8ue170006ENS_18__default_init_tagE, symObjAddr: 0x1718, symBinAddr: 0x100002F88, symSize: 0x2C }
  - { offsetInCU: 0x117A9, offset: 0x117A9, size: 0x8, addend: 0x0, symName: __ZNSt3__19allocatorI4EdgeEC2B8ue170006Ev, symObjAddr: 0x1744, symBinAddr: 0x100002FB4, symSize: 0x2C }
  - { offsetInCU: 0x117D3, offset: 0x117D3, size: 0x8, addend: 0x0, symName: __ZNSt3__116__non_trivial_ifILb1ENS_9allocatorI4EdgeEEEC2B8ue170006Ev, symObjAddr: 0x1770, symBinAddr: 0x100002FE0, symSize: 0x14 }
  - { offsetInCU: 0x117FD, offset: 0x117FD, size: 0x8, addend: 0x0, symName: __ZNSt3__16vectorINS0_I4EdgeNS_9allocatorIS1_EEEENS2_IS4_EEE21_ConstructTransactionD2B8ue170006Ev, symObjAddr: 0x1784, symBinAddr: 0x100002FF4, symSize: 0x20 }
  - { offsetInCU: 0x11827, offset: 0x11827, size: 0x8, addend: 0x0, symName: __ZNSt3__117__compressed_pairIPNS_6vectorI4EdgeNS_9allocatorIS2_EEEENS3_IS5_EEE6secondB8ue170006Ev, symObjAddr: 0x17A4, symBinAddr: 0x100003014, symSize: 0x24 }
  - { offsetInCU: 0x1184D, offset: 0x1184D, size: 0x8, addend: 0x0, symName: __ZNSt3__122__compressed_pair_elemINS_9allocatorINS_6vectorI4EdgeNS1_IS3_EEEEEELi1ELb1EE5__getB8ue170006Ev, symObjAddr: 0x17C8, symBinAddr: 0x100003038, symSize: 0x14 }
  - { offsetInCU: 0x11873, offset: 0x11873, size: 0x8, addend: 0x0, symName: __ZNKSt3__16vectorINS0_I4EdgeNS_9allocatorIS1_EEEENS2_IS4_EEE8max_sizeEv, symObjAddr: 0x17DC, symBinAddr: 0x10000304C, symSize: 0x74 }
  - { offsetInCU: 0x1189B, offset: 0x1189B, size: 0x8, addend: 0x0, symName: __ZNKSt3__16vectorINS0_I4EdgeNS_9allocatorIS1_EEEENS2_IS4_EEE20__throw_length_errorB8ue170006Ev, symObjAddr: 0x1850, symBinAddr: 0x1000030C0, symSize: 0x1C }
  - { offsetInCU: 0x118C1, offset: 0x118C1, size: 0x8, addend: 0x0, symName: __ZNKSt3__16vectorINS0_I4EdgeNS_9allocatorIS1_EEEENS2_IS4_EEE8capacityB8ue170006Ev, symObjAddr: 0x186C, symBinAddr: 0x1000030DC, symSize: 0x40 }
  - { offsetInCU: 0x118F1, offset: 0x118F1, size: 0x8, addend: 0x0, symName: __ZNSt3__116allocator_traitsINS_9allocatorINS_6vectorI4EdgeNS1_IS3_EEEEEEE8max_sizeB8ue170006IS6_vEEmRKS6_, symObjAddr: 0x1904, symBinAddr: 0x100003174, symSize: 0x24 }
  - { offsetInCU: 0x1191F, offset: 0x1191F, size: 0x8, addend: 0x0, symName: __ZNKSt3__16vectorINS0_I4EdgeNS_9allocatorIS1_EEEENS2_IS4_EEE7__allocB8ue170006Ev, symObjAddr: 0x1928, symBinAddr: 0x100003198, symSize: 0x28 }
  - { offsetInCU: 0x11945, offset: 0x11945, size: 0x8, addend: 0x0, symName: __ZNSt3__114numeric_limitsIlE3maxB8ue170006Ev, symObjAddr: 0x1950, symBinAddr: 0x1000031C0, symSize: 0x14 }
  - { offsetInCU: 0x1196D, offset: 0x1196D, size: 0x8, addend: 0x0, symName: __ZNKSt3__16__lessIvvEclB8ue170006ImmEEbRKT_RKT0_, symObjAddr: 0x19B8, symBinAddr: 0x100003228, symSize: 0x34 }
  - { offsetInCU: 0x119C1, offset: 0x119C1, size: 0x8, addend: 0x0, symName: __ZNKSt3__19allocatorINS_6vectorI4EdgeNS0_IS2_EEEEE8max_sizeB8ue170006Ev, symObjAddr: 0x19EC, symBinAddr: 0x10000325C, symSize: 0x18 }
  - { offsetInCU: 0x119E7, offset: 0x119E7, size: 0x8, addend: 0x0, symName: __ZNKSt3__117__compressed_pairIPNS_6vectorI4EdgeNS_9allocatorIS2_EEEENS3_IS5_EEE6secondB8ue170006Ev, symObjAddr: 0x1A04, symBinAddr: 0x100003274, symSize: 0x24 }
  - { offsetInCU: 0x11A0D, offset: 0x11A0D, size: 0x8, addend: 0x0, symName: __ZNKSt3__122__compressed_pair_elemINS_9allocatorINS_6vectorI4EdgeNS1_IS3_EEEEEELi1ELb1EE5__getB8ue170006Ev, symObjAddr: 0x1A28, symBinAddr: 0x100003298, symSize: 0x14 }
  - { offsetInCU: 0x11A33, offset: 0x11A33, size: 0x8, addend: 0x0, symName: __ZNSt3__123__libcpp_numeric_limitsIlLb1EE3maxB8ue170006Ev, symObjAddr: 0x1A3C, symBinAddr: 0x1000032AC, symSize: 0x8 }
  - { offsetInCU: 0x11A47, offset: 0x11A47, size: 0x8, addend: 0x0, symName: __ZNSt12length_errorC1B8ue170006EPKc, symObjAddr: 0x1AA8, symBinAddr: 0x100003318, symSize: 0x34 }
  - { offsetInCU: 0x11A7F, offset: 0x11A7F, size: 0x8, addend: 0x0, symName: __ZNSt12length_errorC2B8ue170006EPKc, symObjAddr: 0x1ADC, symBinAddr: 0x10000334C, symSize: 0x4C }
  - { offsetInCU: 0x11AB7, offset: 0x11AB7, size: 0x8, addend: 0x0, symName: __ZNKSt3__16vectorINS0_I4EdgeNS_9allocatorIS1_EEEENS2_IS4_EEE9__end_capB8ue170006Ev, symObjAddr: 0x1B28, symBinAddr: 0x100003398, symSize: 0x28 }
  - { offsetInCU: 0x11ADD, offset: 0x11ADD, size: 0x8, addend: 0x0, symName: __ZNKSt3__117__compressed_pairIPNS_6vectorI4EdgeNS_9allocatorIS2_EEEENS3_IS5_EEE5firstB8ue170006Ev, symObjAddr: 0x1B50, symBinAddr: 0x1000033C0, symSize: 0x24 }
  - { offsetInCU: 0x11B03, offset: 0x11B03, size: 0x8, addend: 0x0, symName: __ZNKSt3__122__compressed_pair_elemIPNS_6vectorI4EdgeNS_9allocatorIS2_EEEELi0ELb0EE5__getB8ue170006Ev, symObjAddr: 0x1B74, symBinAddr: 0x1000033E4, symSize: 0x14 }
  - { offsetInCU: 0x11B29, offset: 0x11B29, size: 0x8, addend: 0x0, symName: __ZNSt3__114__split_bufferINS_6vectorI4EdgeNS_9allocatorIS2_EEEERNS3_IS5_EEEC2EmmS7_, symObjAddr: 0x1BDC, symBinAddr: 0x10000344C, symSize: 0xE0 }
  - { offsetInCU: 0x11B9D, offset: 0x11B9D, size: 0x8, addend: 0x0, symName: __ZNSt3__117__compressed_pairIPNS_6vectorI4EdgeNS_9allocatorIS2_EEEERNS3_IS5_EEEC1B8ue170006IDnS8_EEOT_OT0_, symObjAddr: 0x1CBC, symBinAddr: 0x10000352C, symSize: 0x3C }
  - { offsetInCU: 0x11BF5, offset: 0x11BF5, size: 0x8, addend: 0x0, symName: __ZNSt3__114__split_bufferINS_6vectorI4EdgeNS_9allocatorIS2_EEEERNS3_IS5_EEE7__allocB8ue170006Ev, symObjAddr: 0x1D38, symBinAddr: 0x1000035A8, symSize: 0x28 }
  - { offsetInCU: 0x11C1B, offset: 0x11C1B, size: 0x8, addend: 0x0, symName: __ZNSt3__114__split_bufferINS_6vectorI4EdgeNS_9allocatorIS2_EEEERNS3_IS5_EEE9__end_capB8ue170006Ev, symObjAddr: 0x1D60, symBinAddr: 0x1000035D0, symSize: 0x28 }
  - { offsetInCU: 0x11C41, offset: 0x11C41, size: 0x8, addend: 0x0, symName: __ZNSt3__117__compressed_pairIPNS_6vectorI4EdgeNS_9allocatorIS2_EEEERNS3_IS5_EEEC2B8ue170006IDnS8_EEOT_OT0_, symObjAddr: 0x1D88, symBinAddr: 0x1000035F8, symSize: 0x48 }
  - { offsetInCU: 0x11C99, offset: 0x11C99, size: 0x8, addend: 0x0, symName: __ZNSt3__122__compressed_pair_elemIRNS_9allocatorINS_6vectorI4EdgeNS1_IS3_EEEEEELi1ELb0EEC2B8ue170006IS7_vEEOT_, symObjAddr: 0x1DD0, symBinAddr: 0x100003640, symSize: 0x20 }
  - { offsetInCU: 0x11CDB, offset: 0x11CDB, size: 0x8, addend: 0x0, symName: __ZNSt3__19allocatorINS_6vectorI4EdgeNS0_IS2_EEEEE8allocateB8ue170006Em, symObjAddr: 0x1DF0, symBinAddr: 0x100003660, symSize: 0x8C }
  - { offsetInCU: 0x11D0F, offset: 0x11D0F, size: 0x8, addend: 0x0, symName: __ZNSt3__117__compressed_pairIPNS_6vectorI4EdgeNS_9allocatorIS2_EEEERNS3_IS5_EEE6secondB8ue170006Ev, symObjAddr: 0x1F08, symBinAddr: 0x100003778, symSize: 0x28 }
  - { offsetInCU: 0x11D35, offset: 0x11D35, size: 0x8, addend: 0x0, symName: __ZNSt3__122__compressed_pair_elemIRNS_9allocatorINS_6vectorI4EdgeNS1_IS3_EEEEEELi1ELb0EE5__getB8ue170006Ev, symObjAddr: 0x1F30, symBinAddr: 0x1000037A0, symSize: 0x18 }
  - { offsetInCU: 0x11D5B, offset: 0x11D5B, size: 0x8, addend: 0x0, symName: __ZNSt3__117__compressed_pairIPNS_6vectorI4EdgeNS_9allocatorIS2_EEEERNS3_IS5_EEE5firstB8ue170006Ev, symObjAddr: 0x1F48, symBinAddr: 0x1000037B8, symSize: 0x24 }
  - { offsetInCU: 0x11D8B, offset: 0x11D8B, size: 0x8, addend: 0x0, symName: __ZNSt3__114__split_bufferINS_6vectorI4EdgeNS_9allocatorIS2_EEEERNS3_IS5_EEE21_ConstructTransactionC1B8ue170006EPPS5_m, symObjAddr: 0x1F6C, symBinAddr: 0x1000037DC, symSize: 0x3C }
  - { offsetInCU: 0x11DD1, offset: 0x11DD1, size: 0x8, addend: 0x0, symName: __ZNSt3__114__split_bufferINS_6vectorI4EdgeNS_9allocatorIS2_EEEERNS3_IS5_EEE21_ConstructTransactionD1B8ue170006Ev, symObjAddr: 0x1FA8, symBinAddr: 0x100003818, symSize: 0x2C }
  - { offsetInCU: 0x11DFB, offset: 0x11DFB, size: 0x8, addend: 0x0, symName: __ZNSt3__114__split_bufferINS_6vectorI4EdgeNS_9allocatorIS2_EEEERNS3_IS5_EEE21_ConstructTransactionC2B8ue170006EPPS5_m, symObjAddr: 0x1FD4, symBinAddr: 0x100003844, symSize: 0x4C }
  - { offsetInCU: 0x11E41, offset: 0x11E41, size: 0x8, addend: 0x0, symName: __ZNSt3__114__split_bufferINS_6vectorI4EdgeNS_9allocatorIS2_EEEERNS3_IS5_EEE21_ConstructTransactionD2B8ue170006Ev, symObjAddr: 0x2020, symBinAddr: 0x100003890, symSize: 0x20 }
  - { offsetInCU: 0x11E6B, offset: 0x11E6B, size: 0x8, addend: 0x0, symName: __ZNKSt3__16vectorINS0_I4EdgeNS_9allocatorIS1_EEEENS2_IS4_EEE17__annotate_deleteB8ue170006Ev, symObjAddr: 0x2040, symBinAddr: 0x1000038B0, symSize: 0xD4 }
  - { offsetInCU: 0x11E91, offset: 0x11E91, size: 0x8, addend: 0x0, symName: __ZNSt3__116reverse_iteratorIPNS_6vectorI4EdgeNS_9allocatorIS2_EEEEEC1B8ue170006ES6_, symObjAddr: 0x2248, symBinAddr: 0x100003AB8, symSize: 0x34 }
  - { offsetInCU: 0x11EC9, offset: 0x11EC9, size: 0x8, addend: 0x0, symName: __ZNKSt3__116reverse_iteratorIPNS_6vectorI4EdgeNS_9allocatorIS2_EEEEE4baseB8ue170006Ev, symObjAddr: 0x227C, symBinAddr: 0x100003AEC, symSize: 0x18 }
  - { offsetInCU: 0x11EEF, offset: 0x11EEF, size: 0x8, addend: 0x0, symName: __ZNKSt3__16vectorINS0_I4EdgeNS_9allocatorIS1_EEEENS2_IS4_EEE14__annotate_newB8ue170006Em, symObjAddr: 0x22D0, symBinAddr: 0x100003B40, symSize: 0xC8 }
  - { offsetInCU: 0x11F24, offset: 0x11F24, size: 0x8, addend: 0x0, symName: __ZNKSt3__16vectorINS0_I4EdgeNS_9allocatorIS1_EEEENS2_IS4_EEE31__annotate_contiguous_containerB8ue170006EPKvS8_S8_S8_, symObjAddr: 0x2398, symBinAddr: 0x100003C08, symSize: 0x20 }
  - { offsetInCU: 0x11F76, offset: 0x11F76, size: 0x8, addend: 0x0, symName: __ZNKSt3__16vectorINS0_I4EdgeNS_9allocatorIS1_EEEENS2_IS4_EEE4dataB8ue170006Ev, symObjAddr: 0x23B8, symBinAddr: 0x100003C28, symSize: 0x28 }
  - { offsetInCU: 0x11F9C, offset: 0x11F9C, size: 0x8, addend: 0x0, symName: __ZNSt3__129_AllocatorDestroyRangeReverseINS_9allocatorINS_6vectorI4EdgeNS1_IS3_EEEEEENS_16reverse_iteratorIPS5_EEEC1B8ue170006ERS6_RS9_SC_, symObjAddr: 0x242C, symBinAddr: 0x100003C9C, symSize: 0x44 }
  - { offsetInCU: 0x11FF3, offset: 0x11FF3, size: 0x8, addend: 0x0, symName: __ZNSt3__116allocator_traitsINS_9allocatorINS_6vectorI4EdgeNS1_IS3_EEEEEEE9constructB8ue170006IS5_JRKS5_EvEEvRS6_PT_DpOT0_, symObjAddr: 0x24B8, symBinAddr: 0x100003D28, symSize: 0x34 }
  - { offsetInCU: 0x1204A, offset: 0x1204A, size: 0x8, addend: 0x0, symName: __ZNKSt3__116reverse_iteratorIPNS_6vectorI4EdgeNS_9allocatorIS2_EEEEEdeB8ue170006Ev, symObjAddr: 0x2510, symBinAddr: 0x100003D80, symSize: 0x28 }
  - { offsetInCU: 0x1207E, offset: 0x1207E, size: 0x8, addend: 0x0, symName: __ZNSt3__116reverse_iteratorIPNS_6vectorI4EdgeNS_9allocatorIS2_EEEEEppB8ue170006Ev, symObjAddr: 0x2538, symBinAddr: 0x100003DA8, symSize: 0x20 }
  - { offsetInCU: 0x120A4, offset: 0x120A4, size: 0x8, addend: 0x0, symName: __ZNSt3__128__exception_guard_exceptionsINS_29_AllocatorDestroyRangeReverseINS_9allocatorINS_6vectorI4EdgeNS2_IS4_EEEEEENS_16reverse_iteratorIPS6_EEEEE10__completeB8ue170006Ev, symObjAddr: 0x2558, symBinAddr: 0x100003DC8, symSize: 0x1C }
  - { offsetInCU: 0x120CA, offset: 0x120CA, size: 0x8, addend: 0x0, symName: __ZNSt3__128__exception_guard_exceptionsINS_29_AllocatorDestroyRangeReverseINS_9allocatorINS_6vectorI4EdgeNS2_IS4_EEEEEENS_16reverse_iteratorIPS6_EEEEED1B8ue170006Ev, symObjAddr: 0x2574, symBinAddr: 0x100003DE4, symSize: 0x2C }
  - { offsetInCU: 0x120F4, offset: 0x120F4, size: 0x8, addend: 0x0, symName: __ZNSt3__128__exception_guard_exceptionsINS_29_AllocatorDestroyRangeReverseINS_9allocatorINS_6vectorI4EdgeNS2_IS4_EEEEEENS_16reverse_iteratorIPS6_EEEEEC1B8ue170006ESB_, symObjAddr: 0x25A0, symBinAddr: 0x100003E10, symSize: 0x34 }
  - { offsetInCU: 0x1212D, offset: 0x1212D, size: 0x8, addend: 0x0, symName: __ZNSt3__128__exception_guard_exceptionsINS_29_AllocatorDestroyRangeReverseINS_9allocatorINS_6vectorI4EdgeNS2_IS4_EEEEEENS_16reverse_iteratorIPS6_EEEEEC2B8ue170006ESB_, symObjAddr: 0x25D4, symBinAddr: 0x100003E44, symSize: 0x30 }
  - { offsetInCU: 0x12166, offset: 0x12166, size: 0x8, addend: 0x0, symName: __ZNSt3__129_AllocatorDestroyRangeReverseINS_9allocatorINS_6vectorI4EdgeNS1_IS3_EEEEEENS_16reverse_iteratorIPS5_EEEC2B8ue170006ERS6_RS9_SC_, symObjAddr: 0x2604, symBinAddr: 0x100003E74, symSize: 0x38 }
  - { offsetInCU: 0x121BD, offset: 0x121BD, size: 0x8, addend: 0x0, symName: __ZNSt3__19allocatorINS_6vectorI4EdgeNS0_IS2_EEEEE9constructB8ue170006IS4_JRKS4_EEEvPT_DpOT0_, symObjAddr: 0x263C, symBinAddr: 0x100003EAC, symSize: 0x30 }
  - { offsetInCU: 0x12213, offset: 0x12213, size: 0x8, addend: 0x0, symName: __ZNSt3__16vectorI4EdgeNS_9allocatorIS1_EEEC1ERKS4_, symObjAddr: 0x266C, symBinAddr: 0x100003EDC, symSize: 0x34 }
  - { offsetInCU: 0x1224E, offset: 0x1224E, size: 0x8, addend: 0x0, symName: __ZNSt3__16vectorI4EdgeNS_9allocatorIS1_EEEC2ERKS4_, symObjAddr: 0x26A0, symBinAddr: 0x100003F10, symSize: 0x94 }
  - { offsetInCU: 0x12293, offset: 0x12293, size: 0x8, addend: 0x0, symName: __ZNSt3__116allocator_traitsINS_9allocatorI4EdgeEEE37select_on_container_copy_constructionB8ue170006IS3_vvEES3_RKS3_, symObjAddr: 0x2734, symBinAddr: 0x100003FA4, symSize: 0x10 }
  - { offsetInCU: 0x122C2, offset: 0x122C2, size: 0x8, addend: 0x0, symName: __ZNKSt3__16vectorI4EdgeNS_9allocatorIS1_EEE7__allocB8ue170006Ev, symObjAddr: 0x2744, symBinAddr: 0x100003FB4, symSize: 0x28 }
  - { offsetInCU: 0x122ED, offset: 0x122ED, size: 0x8, addend: 0x0, symName: __ZNSt3__117__compressed_pairIP4EdgeNS_9allocatorIS1_EEEC1B8ue170006IDnS4_EEOT_OT0_, symObjAddr: 0x276C, symBinAddr: 0x100003FDC, symSize: 0x3C }
  - { offsetInCU: 0x12345, offset: 0x12345, size: 0x8, addend: 0x0, symName: __ZNSt3__16vectorI4EdgeNS_9allocatorIS1_EEE16__init_with_sizeB8ue170006IPS1_S6_EEvT_T0_m, symObjAddr: 0x27A8, symBinAddr: 0x100004018, symSize: 0xC0 }
  - { offsetInCU: 0x123B9, offset: 0x123B9, size: 0x8, addend: 0x0, symName: __ZNKSt3__16vectorI4EdgeNS_9allocatorIS1_EEE4sizeB8ue170006Ev, symObjAddr: 0x2868, symBinAddr: 0x1000040D8, symSize: 0x28 }
  - { offsetInCU: 0x123DF, offset: 0x123DF, size: 0x8, addend: 0x0, symName: __ZNKSt3__117__compressed_pairIP4EdgeNS_9allocatorIS1_EEE6secondB8ue170006Ev, symObjAddr: 0x2890, symBinAddr: 0x100004100, symSize: 0x24 }
  - { offsetInCU: 0x12405, offset: 0x12405, size: 0x8, addend: 0x0, symName: __ZNKSt3__122__compressed_pair_elemINS_9allocatorI4EdgeEELi1ELb1EE5__getB8ue170006Ev, symObjAddr: 0x28B4, symBinAddr: 0x100004124, symSize: 0x14 }
  - { offsetInCU: 0x1242B, offset: 0x1242B, size: 0x8, addend: 0x0, symName: __ZNSt3__117__compressed_pairIP4EdgeNS_9allocatorIS1_EEEC2B8ue170006IDnS4_EEOT_OT0_, symObjAddr: 0x28C8, symBinAddr: 0x100004138, symSize: 0x44 }
  - { offsetInCU: 0x12483, offset: 0x12483, size: 0x8, addend: 0x0, symName: __ZNSt3__122__compressed_pair_elemINS_9allocatorI4EdgeEELi1ELb1EEC2B8ue170006IS3_vEEOT_, symObjAddr: 0x290C, symBinAddr: 0x10000417C, symSize: 0x18 }
  - { offsetInCU: 0x124C5, offset: 0x124C5, size: 0x8, addend: 0x0, symName: __ZNSt3__16vectorI4EdgeNS_9allocatorIS1_EEE16__destroy_vectorC1B8ue170006ERS4_, symObjAddr: 0x2964, symBinAddr: 0x1000041D4, symSize: 0x34 }
  - { offsetInCU: 0x124FE, offset: 0x124FE, size: 0x8, addend: 0x0, symName: __ZNSt3__16vectorI4EdgeNS_9allocatorIS1_EEE11__vallocateB8ue170006Em, symObjAddr: 0x2998, symBinAddr: 0x100004208, symSize: 0xB4 }
  - { offsetInCU: 0x12542, offset: 0x12542, size: 0x8, addend: 0x0, symName: __ZNSt3__16vectorI4EdgeNS_9allocatorIS1_EEE18__construct_at_endIPS1_S6_EEvT_T0_m, symObjAddr: 0x2A4C, symBinAddr: 0x1000042BC, symSize: 0x94 }
  - { offsetInCU: 0x125B8, offset: 0x125B8, size: 0x8, addend: 0x0, symName: __ZNSt3__128__exception_guard_exceptionsINS_6vectorI4EdgeNS_9allocatorIS2_EEE16__destroy_vectorEE10__completeB8ue170006Ev, symObjAddr: 0x2AE0, symBinAddr: 0x100004350, symSize: 0x1C }
  - { offsetInCU: 0x125DE, offset: 0x125DE, size: 0x8, addend: 0x0, symName: __ZNSt3__128__exception_guard_exceptionsINS_6vectorI4EdgeNS_9allocatorIS2_EEE16__destroy_vectorEED1B8ue170006Ev, symObjAddr: 0x2AFC, symBinAddr: 0x10000436C, symSize: 0x2C }
  - { offsetInCU: 0x12608, offset: 0x12608, size: 0x8, addend: 0x0, symName: __ZNSt3__128__exception_guard_exceptionsINS_6vectorI4EdgeNS_9allocatorIS2_EEE16__destroy_vectorEEC1B8ue170006ES6_, symObjAddr: 0x2B28, symBinAddr: 0x100004398, symSize: 0x34 }
  - { offsetInCU: 0x12640, offset: 0x12640, size: 0x8, addend: 0x0, symName: __ZNSt3__128__exception_guard_exceptionsINS_6vectorI4EdgeNS_9allocatorIS2_EEE16__destroy_vectorEEC2B8ue170006ES6_, symObjAddr: 0x2B5C, symBinAddr: 0x1000043CC, symSize: 0x24 }
  - { offsetInCU: 0x12678, offset: 0x12678, size: 0x8, addend: 0x0, symName: __ZNSt3__16vectorI4EdgeNS_9allocatorIS1_EEE16__destroy_vectorC2B8ue170006ERS4_, symObjAddr: 0x2B80, symBinAddr: 0x1000043F0, symSize: 0x20 }
  - { offsetInCU: 0x126B1, offset: 0x126B1, size: 0x8, addend: 0x0, symName: __ZNKSt3__16vectorI4EdgeNS_9allocatorIS1_EEE8max_sizeEv, symObjAddr: 0x2BA0, symBinAddr: 0x100004410, symSize: 0x74 }
  - { offsetInCU: 0x126D9, offset: 0x126D9, size: 0x8, addend: 0x0, symName: __ZNKSt3__16vectorI4EdgeNS_9allocatorIS1_EEE20__throw_length_errorB8ue170006Ev, symObjAddr: 0x2C14, symBinAddr: 0x100004484, symSize: 0x1C }
  - { offsetInCU: 0x126FF, offset: 0x126FF, size: 0x8, addend: 0x0, symName: __ZNSt3__16vectorI4EdgeNS_9allocatorIS1_EEE7__allocB8ue170006Ev, symObjAddr: 0x2C70, symBinAddr: 0x1000044E0, symSize: 0x28 }
  - { offsetInCU: 0x12725, offset: 0x12725, size: 0x8, addend: 0x0, symName: __ZNSt3__16vectorI4EdgeNS_9allocatorIS1_EEE9__end_capB8ue170006Ev, symObjAddr: 0x2C98, symBinAddr: 0x100004508, symSize: 0x28 }
  - { offsetInCU: 0x1274B, offset: 0x1274B, size: 0x8, addend: 0x0, symName: __ZNKSt3__16vectorI4EdgeNS_9allocatorIS1_EEE14__annotate_newB8ue170006Em, symObjAddr: 0x2CC0, symBinAddr: 0x100004530, symSize: 0xC8 }
  - { offsetInCU: 0x12780, offset: 0x12780, size: 0x8, addend: 0x0, symName: __ZNSt3__116allocator_traitsINS_9allocatorI4EdgeEEE8max_sizeB8ue170006IS3_vEEmRKS3_, symObjAddr: 0x2D88, symBinAddr: 0x1000045F8, symSize: 0x24 }
  - { offsetInCU: 0x127AE, offset: 0x127AE, size: 0x8, addend: 0x0, symName: __ZNKSt3__19allocatorI4EdgeE8max_sizeB8ue170006Ev, symObjAddr: 0x2DAC, symBinAddr: 0x10000461C, symSize: 0x18 }
  - { offsetInCU: 0x127D4, offset: 0x127D4, size: 0x8, addend: 0x0, symName: __ZNSt3__19allocatorI4EdgeE8allocateB8ue170006Em, symObjAddr: 0x2DC4, symBinAddr: 0x100004634, symSize: 0x8C }
  - { offsetInCU: 0x12808, offset: 0x12808, size: 0x8, addend: 0x0, symName: __ZNSt3__117__compressed_pairIP4EdgeNS_9allocatorIS1_EEE6secondB8ue170006Ev, symObjAddr: 0x2E50, symBinAddr: 0x1000046C0, symSize: 0x24 }
  - { offsetInCU: 0x1282E, offset: 0x1282E, size: 0x8, addend: 0x0, symName: __ZNSt3__122__compressed_pair_elemINS_9allocatorI4EdgeEELi1ELb1EE5__getB8ue170006Ev, symObjAddr: 0x2E74, symBinAddr: 0x1000046E4, symSize: 0x14 }
  - { offsetInCU: 0x12854, offset: 0x12854, size: 0x8, addend: 0x0, symName: __ZNSt3__117__compressed_pairIP4EdgeNS_9allocatorIS1_EEE5firstB8ue170006Ev, symObjAddr: 0x2E88, symBinAddr: 0x1000046F8, symSize: 0x24 }
  - { offsetInCU: 0x1287A, offset: 0x1287A, size: 0x8, addend: 0x0, symName: __ZNSt3__122__compressed_pair_elemIP4EdgeLi0ELb0EE5__getB8ue170006Ev, symObjAddr: 0x2EAC, symBinAddr: 0x10000471C, symSize: 0x14 }
  - { offsetInCU: 0x128A0, offset: 0x128A0, size: 0x8, addend: 0x0, symName: __ZNKSt3__16vectorI4EdgeNS_9allocatorIS1_EEE31__annotate_contiguous_containerB8ue170006EPKvS6_S6_S6_, symObjAddr: 0x2EC0, symBinAddr: 0x100004730, symSize: 0x20 }
  - { offsetInCU: 0x128F2, offset: 0x128F2, size: 0x8, addend: 0x0, symName: __ZNKSt3__16vectorI4EdgeNS_9allocatorIS1_EEE4dataB8ue170006Ev, symObjAddr: 0x2EE0, symBinAddr: 0x100004750, symSize: 0x28 }
  - { offsetInCU: 0x12918, offset: 0x12918, size: 0x8, addend: 0x0, symName: __ZNKSt3__16vectorI4EdgeNS_9allocatorIS1_EEE8capacityB8ue170006Ev, symObjAddr: 0x2F08, symBinAddr: 0x100004778, symSize: 0x40 }
  - { offsetInCU: 0x1293E, offset: 0x1293E, size: 0x8, addend: 0x0, symName: __ZNKSt3__16vectorI4EdgeNS_9allocatorIS1_EEE9__end_capB8ue170006Ev, symObjAddr: 0x2F5C, symBinAddr: 0x1000047CC, symSize: 0x28 }
  - { offsetInCU: 0x12964, offset: 0x12964, size: 0x8, addend: 0x0, symName: __ZNKSt3__117__compressed_pairIP4EdgeNS_9allocatorIS1_EEE5firstB8ue170006Ev, symObjAddr: 0x2F84, symBinAddr: 0x1000047F4, symSize: 0x24 }
  - { offsetInCU: 0x1298A, offset: 0x1298A, size: 0x8, addend: 0x0, symName: __ZNKSt3__122__compressed_pair_elemIP4EdgeLi0ELb0EE5__getB8ue170006Ev, symObjAddr: 0x2FA8, symBinAddr: 0x100004818, symSize: 0x14 }
  - { offsetInCU: 0x129C9, offset: 0x129C9, size: 0x8, addend: 0x0, symName: __ZNSt3__16vectorI4EdgeNS_9allocatorIS1_EEE21_ConstructTransactionC1B8ue170006ERS4_m, symObjAddr: 0x2FBC, symBinAddr: 0x10000482C, symSize: 0x3C }
  - { offsetInCU: 0x12A11, offset: 0x12A11, size: 0x8, addend: 0x0, symName: __ZNSt3__16vectorI4EdgeNS_9allocatorIS1_EEE21_ConstructTransactionD1B8ue170006Ev, symObjAddr: 0x3078, symBinAddr: 0x1000048E8, symSize: 0x2C }
  - { offsetInCU: 0x12A3B, offset: 0x12A3B, size: 0x8, addend: 0x0, symName: __ZNSt3__16vectorI4EdgeNS_9allocatorIS1_EEE21_ConstructTransactionC2B8ue170006ERS4_m, symObjAddr: 0x30A4, symBinAddr: 0x100004914, symSize: 0x4C }
  - { offsetInCU: 0x12A9C, offset: 0x12A9C, size: 0x8, addend: 0x0, symName: __ZNSt3__14pairIP4EdgeS2_EC1B8ue170006ERKS2_S5_, symObjAddr: 0x32F8, symBinAddr: 0x100004B68, symSize: 0x3C }
  - { offsetInCU: 0x12AE2, offset: 0x12AE2, size: 0x8, addend: 0x0, symName: __ZNSt3__14pairIP4EdgeS2_EC2B8ue170006ERKS2_S5_, symObjAddr: 0x3334, symBinAddr: 0x100004BA4, symSize: 0x34 }
  - { offsetInCU: 0x12B28, offset: 0x12B28, size: 0x8, addend: 0x0, symName: __ZNSt3__129_AllocatorDestroyRangeReverseINS_9allocatorI4EdgeEEPS2_EC1B8ue170006ERS3_RS4_S7_, symObjAddr: 0x33B4, symBinAddr: 0x100004C24, symSize: 0x44 }
  - { offsetInCU: 0x12B7F, offset: 0x12B7F, size: 0x8, addend: 0x0, symName: __ZNSt3__116allocator_traitsINS_9allocatorI4EdgeEEE9constructB8ue170006IS2_JRS2_EvEEvRS3_PT_DpOT0_, symObjAddr: 0x33F8, symBinAddr: 0x100004C68, symSize: 0x34 }
  - { offsetInCU: 0x12BD6, offset: 0x12BD6, size: 0x8, addend: 0x0, symName: __ZNSt3__128__exception_guard_exceptionsINS_29_AllocatorDestroyRangeReverseINS_9allocatorI4EdgeEEPS3_EEE10__completeB8ue170006Ev, symObjAddr: 0x342C, symBinAddr: 0x100004C9C, symSize: 0x1C }
  - { offsetInCU: 0x12BFC, offset: 0x12BFC, size: 0x8, addend: 0x0, symName: __ZNSt3__128__exception_guard_exceptionsINS_29_AllocatorDestroyRangeReverseINS_9allocatorI4EdgeEEPS3_EEED1B8ue170006Ev, symObjAddr: 0x3448, symBinAddr: 0x100004CB8, symSize: 0x2C }
  - { offsetInCU: 0x12C26, offset: 0x12C26, size: 0x8, addend: 0x0, symName: __ZNSt3__128__exception_guard_exceptionsINS_29_AllocatorDestroyRangeReverseINS_9allocatorI4EdgeEEPS3_EEEC1B8ue170006ES6_, symObjAddr: 0x3474, symBinAddr: 0x100004CE4, symSize: 0x34 }
  - { offsetInCU: 0x12C5F, offset: 0x12C5F, size: 0x8, addend: 0x0, symName: __ZNSt3__128__exception_guard_exceptionsINS_29_AllocatorDestroyRangeReverseINS_9allocatorI4EdgeEEPS3_EEEC2B8ue170006ES6_, symObjAddr: 0x34A8, symBinAddr: 0x100004D18, symSize: 0x30 }
  - { offsetInCU: 0x12C98, offset: 0x12C98, size: 0x8, addend: 0x0, symName: __ZNSt3__129_AllocatorDestroyRangeReverseINS_9allocatorI4EdgeEEPS2_EC2B8ue170006ERS3_RS4_S7_, symObjAddr: 0x34D8, symBinAddr: 0x100004D48, symSize: 0x38 }
  - { offsetInCU: 0x12CEF, offset: 0x12CEF, size: 0x8, addend: 0x0, symName: __ZNSt3__19allocatorI4EdgeE9constructB8ue170006IS1_JRS1_EEEvPT_DpOT0_, symObjAddr: 0x3510, symBinAddr: 0x100004D80, symSize: 0x30 }
  - { offsetInCU: 0x12D45, offset: 0x12D45, size: 0x8, addend: 0x0, symName: __ZNSt3__128__exception_guard_exceptionsINS_29_AllocatorDestroyRangeReverseINS_9allocatorI4EdgeEEPS3_EEED2B8ue170006Ev, symObjAddr: 0x3540, symBinAddr: 0x100004DB0, symSize: 0x48 }
  - { offsetInCU: 0x12D6F, offset: 0x12D6F, size: 0x8, addend: 0x0, symName: __ZNKSt3__129_AllocatorDestroyRangeReverseINS_9allocatorI4EdgeEEPS2_EclB8ue170006Ev, symObjAddr: 0x3588, symBinAddr: 0x100004DF8, symSize: 0x68 }
  - { offsetInCU: 0x12D95, offset: 0x12D95, size: 0x8, addend: 0x0, symName: __ZNSt3__116reverse_iteratorIP4EdgeEC1B8ue170006ES2_, symObjAddr: 0x3660, symBinAddr: 0x100004ED0, symSize: 0x34 }
  - { offsetInCU: 0x12DCD, offset: 0x12DCD, size: 0x8, addend: 0x0, symName: __ZNSt3__116allocator_traitsINS_9allocatorI4EdgeEEE7destroyB8ue170006IS2_vEEvRS3_PT_, symObjAddr: 0x36DC, symBinAddr: 0x100004F4C, symSize: 0x2C }
  - { offsetInCU: 0x12E0A, offset: 0x12E0A, size: 0x8, addend: 0x0, symName: __ZNSt3__116reverse_iteratorIP4EdgeEppB8ue170006Ev, symObjAddr: 0x372C, symBinAddr: 0x100004F9C, symSize: 0x20 }
  - { offsetInCU: 0x12E30, offset: 0x12E30, size: 0x8, addend: 0x0, symName: __ZNKSt3__116reverse_iteratorIP4EdgeE4baseB8ue170006Ev, symObjAddr: 0x374C, symBinAddr: 0x100004FBC, symSize: 0x18 }
  - { offsetInCU: 0x12E56, offset: 0x12E56, size: 0x8, addend: 0x0, symName: __ZNSt3__19allocatorI4EdgeE7destroyB8ue170006EPS1_, symObjAddr: 0x3764, symBinAddr: 0x100004FD4, symSize: 0x14 }
  - { offsetInCU: 0x12E8F, offset: 0x12E8F, size: 0x8, addend: 0x0, symName: __ZNSt3__119__to_address_helperINS_16reverse_iteratorIP4EdgeEEvE6__callB8ue170006ERKS4_, symObjAddr: 0x3778, symBinAddr: 0x100004FE8, symSize: 0x4C }
  - { offsetInCU: 0x12EB2, offset: 0x12EB2, size: 0x8, addend: 0x0, symName: __ZNKSt3__116reverse_iteratorIP4EdgeEptB8ue170006Ev, symObjAddr: 0x37C4, symBinAddr: 0x100005034, symSize: 0x24 }
  - { offsetInCU: 0x12ED8, offset: 0x12ED8, size: 0x8, addend: 0x0, symName: __ZNKSt3__116reverse_iteratorIP4EdgeEdeB8ue170006Ev, symObjAddr: 0x37E8, symBinAddr: 0x100005058, symSize: 0x28 }
  - { offsetInCU: 0x12F0C, offset: 0x12F0C, size: 0x8, addend: 0x0, symName: __ZNSt3__116reverse_iteratorIP4EdgeEC2B8ue170006ES2_, symObjAddr: 0x3810, symBinAddr: 0x100005080, symSize: 0x28 }
  - { offsetInCU: 0x12F44, offset: 0x12F44, size: 0x8, addend: 0x0, symName: __ZNSt3__118__unwrap_iter_implIP4EdgeLb1EE8__unwrapB8ue170006ES2_, symObjAddr: 0x3838, symBinAddr: 0x1000050A8, symSize: 0x24 }
  - { offsetInCU: 0x12F67, offset: 0x12F67, size: 0x8, addend: 0x0, symName: __ZNSt3__118__unwrap_iter_implIP4EdgeLb1EE8__rewrapB8ue170006ES2_S2_, symObjAddr: 0x385C, symBinAddr: 0x1000050CC, symSize: 0x58 }
  - { offsetInCU: 0x12F98, offset: 0x12F98, size: 0x8, addend: 0x0, symName: __ZNSt3__16vectorI4EdgeNS_9allocatorIS1_EEE21_ConstructTransactionD2B8ue170006Ev, symObjAddr: 0x38B4, symBinAddr: 0x100005124, symSize: 0x20 }
  - { offsetInCU: 0x12FC2, offset: 0x12FC2, size: 0x8, addend: 0x0, symName: __ZNSt3__128__exception_guard_exceptionsINS_6vectorI4EdgeNS_9allocatorIS2_EEE16__destroy_vectorEED2B8ue170006Ev, symObjAddr: 0x38D4, symBinAddr: 0x100005144, symSize: 0x48 }
  - { offsetInCU: 0x12FEC, offset: 0x12FEC, size: 0x8, addend: 0x0, symName: __ZNSt3__16vectorI4EdgeNS_9allocatorIS1_EEE16__destroy_vectorclB8ue170006Ev, symObjAddr: 0x391C, symBinAddr: 0x10000518C, symSize: 0x90 }
  - { offsetInCU: 0x13012, offset: 0x13012, size: 0x8, addend: 0x0, symName: __ZNSt3__16vectorI4EdgeNS_9allocatorIS1_EEE7__clearB8ue170006Ev, symObjAddr: 0x39AC, symBinAddr: 0x10000521C, symSize: 0x28 }
  - { offsetInCU: 0x13038, offset: 0x13038, size: 0x8, addend: 0x0, symName: __ZNKSt3__16vectorI4EdgeNS_9allocatorIS1_EEE17__annotate_deleteB8ue170006Ev, symObjAddr: 0x39D4, symBinAddr: 0x100005244, symSize: 0xD4 }
  - { offsetInCU: 0x1305E, offset: 0x1305E, size: 0x8, addend: 0x0, symName: __ZNSt3__116allocator_traitsINS_9allocatorI4EdgeEEE10deallocateB8ue170006ERS3_PS2_m, symObjAddr: 0x3AA8, symBinAddr: 0x100005318, symSize: 0x34 }
  - { offsetInCU: 0x130A0, offset: 0x130A0, size: 0x8, addend: 0x0, symName: __ZNSt3__16vectorI4EdgeNS_9allocatorIS1_EEE22__base_destruct_at_endB8ue170006EPS1_, symObjAddr: 0x3ADC, symBinAddr: 0x10000534C, symSize: 0xA0 }
  - { offsetInCU: 0x130E4, offset: 0x130E4, size: 0x8, addend: 0x0, symName: __ZNSt3__19allocatorI4EdgeE10deallocateB8ue170006EPS1_m, symObjAddr: 0x3B7C, symBinAddr: 0x1000053EC, symSize: 0x74 }
  - { offsetInCU: 0x1312B, offset: 0x1312B, size: 0x8, addend: 0x0, symName: __ZNSt3__119__to_address_helperINS_16reverse_iteratorIPNS_6vectorI4EdgeNS_9allocatorIS3_EEEEEEvE6__callB8ue170006ERKS8_, symObjAddr: 0x3C6C, symBinAddr: 0x1000054DC, symSize: 0x4C }
  - { offsetInCU: 0x1314E, offset: 0x1314E, size: 0x8, addend: 0x0, symName: __ZNKSt3__116reverse_iteratorIPNS_6vectorI4EdgeNS_9allocatorIS2_EEEEEptB8ue170006Ev, symObjAddr: 0x3CB8, symBinAddr: 0x100005528, symSize: 0x24 }
  - { offsetInCU: 0x13174, offset: 0x13174, size: 0x8, addend: 0x0, symName: __ZNSt3__128__exception_guard_exceptionsINS_29_AllocatorDestroyRangeReverseINS_9allocatorINS_6vectorI4EdgeNS2_IS4_EEEEEENS_16reverse_iteratorIPS6_EEEEED2B8ue170006Ev, symObjAddr: 0x3CDC, symBinAddr: 0x10000554C, symSize: 0x48 }
  - { offsetInCU: 0x1319E, offset: 0x1319E, size: 0x8, addend: 0x0, symName: __ZNKSt3__129_AllocatorDestroyRangeReverseINS_9allocatorINS_6vectorI4EdgeNS1_IS3_EEEEEENS_16reverse_iteratorIPS5_EEEclB8ue170006Ev, symObjAddr: 0x3D24, symBinAddr: 0x100005594, symSize: 0xB4 }
  - { offsetInCU: 0x131C5, offset: 0x131C5, size: 0x8, addend: 0x0, symName: __ZNSt3__116reverse_iteratorINS0_IPNS_6vectorI4EdgeNS_9allocatorIS2_EEEEEEEC1B8ue170006ES7_, symObjAddr: 0x3E48, symBinAddr: 0x1000056B8, symSize: 0x3C }
  - { offsetInCU: 0x131FD, offset: 0x131FD, size: 0x8, addend: 0x0, symName: __ZNSt3__116allocator_traitsINS_9allocatorINS_6vectorI4EdgeNS1_IS3_EEEEEEE7destroyB8ue170006IS5_vEEvRS6_PT_, symObjAddr: 0x3EE4, symBinAddr: 0x100005754, symSize: 0x2C }
  - { offsetInCU: 0x1323A, offset: 0x1323A, size: 0x8, addend: 0x0, symName: __ZNSt3__116reverse_iteratorINS0_IPNS_6vectorI4EdgeNS_9allocatorIS2_EEEEEEEppB8ue170006Ev, symObjAddr: 0x3F34, symBinAddr: 0x1000057A4, symSize: 0x30 }
  - { offsetInCU: 0x13260, offset: 0x13260, size: 0x8, addend: 0x0, symName: __ZNKSt3__116reverse_iteratorINS0_IPNS_6vectorI4EdgeNS_9allocatorIS2_EEEEEEE4baseB8ue170006Ev, symObjAddr: 0x3F64, symBinAddr: 0x1000057D4, symSize: 0x24 }
  - { offsetInCU: 0x13286, offset: 0x13286, size: 0x8, addend: 0x0, symName: __ZNSt3__19allocatorINS_6vectorI4EdgeNS0_IS2_EEEEE7destroyB8ue170006EPS4_, symObjAddr: 0x3F88, symBinAddr: 0x1000057F8, symSize: 0x28 }
  - { offsetInCU: 0x132BA, offset: 0x132BA, size: 0x8, addend: 0x0, symName: __ZNSt3__16vectorI4EdgeNS_9allocatorIS1_EEED1B8ue170006Ev, symObjAddr: 0x3FB0, symBinAddr: 0x100005820, symSize: 0x2C }
  - { offsetInCU: 0x132E4, offset: 0x132E4, size: 0x8, addend: 0x0, symName: __ZNSt3__16vectorI4EdgeNS_9allocatorIS1_EEED2B8ue170006Ev, symObjAddr: 0x3FDC, symBinAddr: 0x10000584C, symSize: 0x3C }
  - { offsetInCU: 0x13313, offset: 0x13313, size: 0x8, addend: 0x0, symName: __ZNSt3__119__to_address_helperINS_16reverse_iteratorINS1_IPNS_6vectorI4EdgeNS_9allocatorIS3_EEEEEEEEvE6__callB8ue170006ERKS9_, symObjAddr: 0x4018, symBinAddr: 0x100005888, symSize: 0x4C }
  - { offsetInCU: 0x13336, offset: 0x13336, size: 0x8, addend: 0x0, symName: __ZNKSt3__116reverse_iteratorINS0_IPNS_6vectorI4EdgeNS_9allocatorIS2_EEEEEEEptB8ue170006Ev, symObjAddr: 0x4064, symBinAddr: 0x1000058D4, symSize: 0x24 }
  - { offsetInCU: 0x1335C, offset: 0x1335C, size: 0x8, addend: 0x0, symName: __ZNKSt3__116reverse_iteratorINS0_IPNS_6vectorI4EdgeNS_9allocatorIS2_EEEEEEEdeB8ue170006Ev, symObjAddr: 0x4088, symBinAddr: 0x1000058F8, symSize: 0x34 }
  - { offsetInCU: 0x13390, offset: 0x13390, size: 0x8, addend: 0x0, symName: __ZNSt3__116reverse_iteratorIPNS_6vectorI4EdgeNS_9allocatorIS2_EEEEEmmB8ue170006Ev, symObjAddr: 0x40BC, symBinAddr: 0x10000592C, symSize: 0x20 }
  - { offsetInCU: 0x133B6, offset: 0x133B6, size: 0x8, addend: 0x0, symName: __ZNSt3__116reverse_iteratorINS0_IPNS_6vectorI4EdgeNS_9allocatorIS2_EEEEEEEC2B8ue170006ES7_, symObjAddr: 0x40DC, symBinAddr: 0x10000594C, symSize: 0x2C }
  - { offsetInCU: 0x133EE, offset: 0x133EE, size: 0x8, addend: 0x0, symName: __ZNSt3__116reverse_iteratorIPNS_6vectorI4EdgeNS_9allocatorIS2_EEEEEC2B8ue170006ES6_, symObjAddr: 0x4108, symBinAddr: 0x100005978, symSize: 0x28 }
  - { offsetInCU: 0x13426, offset: 0x13426, size: 0x8, addend: 0x0, symName: __ZNSt3__114__split_bufferINS_6vectorI4EdgeNS_9allocatorIS2_EEEERNS3_IS5_EEED2Ev, symObjAddr: 0x4130, symBinAddr: 0x1000059A0, symSize: 0x80 }
  - { offsetInCU: 0x13452, offset: 0x13452, size: 0x8, addend: 0x0, symName: __ZNSt3__114__split_bufferINS_6vectorI4EdgeNS_9allocatorIS2_EEEERNS3_IS5_EEE5clearB8ue170006Ev, symObjAddr: 0x41B0, symBinAddr: 0x100005A20, symSize: 0x28 }
  - { offsetInCU: 0x13478, offset: 0x13478, size: 0x8, addend: 0x0, symName: __ZNSt3__116allocator_traitsINS_9allocatorINS_6vectorI4EdgeNS1_IS3_EEEEEEE10deallocateB8ue170006ERS6_PS5_m, symObjAddr: 0x41D8, symBinAddr: 0x100005A48, symSize: 0x34 }
  - { offsetInCU: 0x134BA, offset: 0x134BA, size: 0x8, addend: 0x0, symName: __ZNKSt3__114__split_bufferINS_6vectorI4EdgeNS_9allocatorIS2_EEEERNS3_IS5_EEE8capacityB8ue170006Ev, symObjAddr: 0x420C, symBinAddr: 0x100005A7C, symSize: 0x40 }
  - { offsetInCU: 0x134E0, offset: 0x134E0, size: 0x8, addend: 0x0, symName: __ZNSt3__114__split_bufferINS_6vectorI4EdgeNS_9allocatorIS2_EEEERNS3_IS5_EEE17__destruct_at_endB8ue170006EPS5_, symObjAddr: 0x424C, symBinAddr: 0x100005ABC, symSize: 0x2C }
  - { offsetInCU: 0x13514, offset: 0x13514, size: 0x8, addend: 0x0, symName: __ZNSt3__114__split_bufferINS_6vectorI4EdgeNS_9allocatorIS2_EEEERNS3_IS5_EEE17__destruct_at_endB8ue170006EPS5_NS_17integral_constantIbLb0EEE, symObjAddr: 0x4278, symBinAddr: 0x100005AE8, symSize: 0x94 }
  - { offsetInCU: 0x13555, offset: 0x13555, size: 0x8, addend: 0x0, symName: __ZNSt3__19allocatorINS_6vectorI4EdgeNS0_IS2_EEEEE10deallocateB8ue170006EPS4_m, symObjAddr: 0x430C, symBinAddr: 0x100005B7C, symSize: 0x74 }
  - { offsetInCU: 0x13597, offset: 0x13597, size: 0x8, addend: 0x0, symName: __ZNKSt3__114__split_bufferINS_6vectorI4EdgeNS_9allocatorIS2_EEEERNS3_IS5_EEE9__end_capB8ue170006Ev, symObjAddr: 0x4380, symBinAddr: 0x100005BF0, symSize: 0x28 }
  - { offsetInCU: 0x135BD, offset: 0x135BD, size: 0x8, addend: 0x0, symName: __ZNKSt3__117__compressed_pairIPNS_6vectorI4EdgeNS_9allocatorIS2_EEEERNS3_IS5_EEE5firstB8ue170006Ev, symObjAddr: 0x43A8, symBinAddr: 0x100005C18, symSize: 0x24 }
  - { offsetInCU: 0x135E3, offset: 0x135E3, size: 0x8, addend: 0x0, symName: __ZNSt3__16vectorINS0_I4EdgeNS_9allocatorIS1_EEEENS2_IS4_EEE22__base_destruct_at_endB8ue170006EPS4_, symObjAddr: 0x43CC, symBinAddr: 0x100005C3C, symSize: 0xA0 }
  - { offsetInCU: 0x13627, offset: 0x13627, size: 0x8, addend: 0x0, symName: __ZNKSt3__16vectorINS0_I4EdgeNS_9allocatorIS1_EEEENS2_IS4_EEE17__annotate_shrinkB8ue170006Em, symObjAddr: 0x446C, symBinAddr: 0x100005CDC, symSize: 0xD0 }
  - { offsetInCU: 0x1365C, offset: 0x1365C, size: 0x8, addend: 0x0, symName: __ZNSt3__16vectorINS0_I4EdgeNS_9allocatorIS1_EEEENS2_IS4_EEED2B8ue170006Ev, symObjAddr: 0x453C, symBinAddr: 0x100005DAC, symSize: 0x3C }
  - { offsetInCU: 0x13686, offset: 0x13686, size: 0x8, addend: 0x0, symName: __ZNSt3__16vectorINS0_I4EdgeNS_9allocatorIS1_EEEENS2_IS4_EEE16__destroy_vectorC1B8ue170006ERS6_, symObjAddr: 0x4578, symBinAddr: 0x100005DE8, symSize: 0x34 }
  - { offsetInCU: 0x136BF, offset: 0x136BF, size: 0x8, addend: 0x0, symName: __ZNSt3__16vectorINS0_I4EdgeNS_9allocatorIS1_EEEENS2_IS4_EEE16__destroy_vectorclB8ue170006Ev, symObjAddr: 0x45AC, symBinAddr: 0x100005E1C, symSize: 0x90 }
  - { offsetInCU: 0x136E5, offset: 0x136E5, size: 0x8, addend: 0x0, symName: __ZNSt3__16vectorINS0_I4EdgeNS_9allocatorIS1_EEEENS2_IS4_EEE16__destroy_vectorC2B8ue170006ERS6_, symObjAddr: 0x463C, symBinAddr: 0x100005EAC, symSize: 0x20 }
  - { offsetInCU: 0x1371E, offset: 0x1371E, size: 0x8, addend: 0x0, symName: __ZNSt3__16vectorINS0_I4EdgeNS_9allocatorIS1_EEEENS2_IS4_EEE7__clearB8ue170006Ev, symObjAddr: 0x465C, symBinAddr: 0x100005ECC, symSize: 0x28 }
  - { offsetInCU: 0x13744, offset: 0x13744, size: 0x8, addend: 0x0, symName: __ZNSt3__16vectorINS0_I4EdgeNS_9allocatorIS1_EEEENS2_IS4_EEEixB8ue170006Em, symObjAddr: 0x4684, symBinAddr: 0x100005EF4, symSize: 0x2C }
  - { offsetInCU: 0x1377B, offset: 0x1377B, size: 0x8, addend: 0x0, symName: __ZNSt3__16vectorI4EdgeNS_9allocatorIS1_EEE9push_backB8ue170006EOS1_, symObjAddr: 0x46B0, symBinAddr: 0x100005F20, symSize: 0x6C }
  - { offsetInCU: 0x137B2, offset: 0x137B2, size: 0x8, addend: 0x0, symName: __ZN4EdgeC1Eiii, symObjAddr: 0x471C, symBinAddr: 0x100005F8C, symSize: 0x44 }
  - { offsetInCU: 0x1380B, offset: 0x1380B, size: 0x8, addend: 0x0, symName: __ZNSt3__16vectorI4EdgeNS_9allocatorIS1_EEE22__construct_one_at_endB8ue170006IJS1_EEEvDpOT_, symObjAddr: 0x4760, symBinAddr: 0x100005FD0, symSize: 0x98 }
  - { offsetInCU: 0x1385A, offset: 0x1385A, size: 0x8, addend: 0x0, symName: __ZNSt3__16vectorI4EdgeNS_9allocatorIS1_EEE21__push_back_slow_pathIS1_EEvOT_, symObjAddr: 0x47F8, symBinAddr: 0x100006068, symSize: 0xE0 }
  - { offsetInCU: 0x138B8, offset: 0x138B8, size: 0x8, addend: 0x0, symName: __ZNSt3__116allocator_traitsINS_9allocatorI4EdgeEEE9constructB8ue170006IS2_JS2_EvEEvRS3_PT_DpOT0_, symObjAddr: 0x48D8, symBinAddr: 0x100006148, symSize: 0x34 }
  - { offsetInCU: 0x1390F, offset: 0x1390F, size: 0x8, addend: 0x0, symName: __ZNSt3__19allocatorI4EdgeE9constructB8ue170006IS1_JS1_EEEvPT_DpOT0_, symObjAddr: 0x490C, symBinAddr: 0x10000617C, symSize: 0x30 }
  - { offsetInCU: 0x13965, offset: 0x13965, size: 0x8, addend: 0x0, symName: __ZNKSt3__16vectorI4EdgeNS_9allocatorIS1_EEE11__recommendB8ue170006Em, symObjAddr: 0x493C, symBinAddr: 0x1000061AC, symSize: 0xB4 }
  - { offsetInCU: 0x139BA, offset: 0x139BA, size: 0x8, addend: 0x0, symName: __ZNSt3__114__split_bufferI4EdgeRNS_9allocatorIS1_EEEC1EmmS4_, symObjAddr: 0x49F0, symBinAddr: 0x100006260, symSize: 0x44 }
  - { offsetInCU: 0x13A10, offset: 0x13A10, size: 0x8, addend: 0x0, symName: __ZNSt3__114__split_bufferI4EdgeRNS_9allocatorIS1_EEED1Ev, symObjAddr: 0x4B44, symBinAddr: 0x1000063B4, symSize: 0x2C }
  - { offsetInCU: 0x13A3C, offset: 0x13A3C, size: 0x8, addend: 0x0, symName: __ZNSt3__114__split_bufferI4EdgeRNS_9allocatorIS1_EEEC2EmmS4_, symObjAddr: 0x4B70, symBinAddr: 0x1000063E0, symSize: 0xE0 }
  - { offsetInCU: 0x13AB0, offset: 0x13AB0, size: 0x8, addend: 0x0, symName: __ZNSt3__117__compressed_pairIP4EdgeRNS_9allocatorIS1_EEEC1B8ue170006IDnS5_EEOT_OT0_, symObjAddr: 0x4C50, symBinAddr: 0x1000064C0, symSize: 0x3C }
  - { offsetInCU: 0x13B08, offset: 0x13B08, size: 0x8, addend: 0x0, symName: __ZNSt3__114__split_bufferI4EdgeRNS_9allocatorIS1_EEE7__allocB8ue170006Ev, symObjAddr: 0x4C8C, symBinAddr: 0x1000064FC, symSize: 0x28 }
  - { offsetInCU: 0x13B2E, offset: 0x13B2E, size: 0x8, addend: 0x0, symName: __ZNSt3__114__split_bufferI4EdgeRNS_9allocatorIS1_EEE9__end_capB8ue170006Ev, symObjAddr: 0x4CB4, symBinAddr: 0x100006524, symSize: 0x28 }
  - { offsetInCU: 0x13B54, offset: 0x13B54, size: 0x8, addend: 0x0, symName: __ZNSt3__117__compressed_pairIP4EdgeRNS_9allocatorIS1_EEEC2B8ue170006IDnS5_EEOT_OT0_, symObjAddr: 0x4CDC, symBinAddr: 0x10000654C, symSize: 0x48 }
  - { offsetInCU: 0x13BAC, offset: 0x13BAC, size: 0x8, addend: 0x0, symName: __ZNSt3__122__compressed_pair_elemIRNS_9allocatorI4EdgeEELi1ELb0EEC2B8ue170006IS4_vEEOT_, symObjAddr: 0x4D24, symBinAddr: 0x100006594, symSize: 0x20 }
  - { offsetInCU: 0x13BEE, offset: 0x13BEE, size: 0x8, addend: 0x0, symName: __ZNSt3__117__compressed_pairIP4EdgeRNS_9allocatorIS1_EEE6secondB8ue170006Ev, symObjAddr: 0x4D44, symBinAddr: 0x1000065B4, symSize: 0x28 }
  - { offsetInCU: 0x13C14, offset: 0x13C14, size: 0x8, addend: 0x0, symName: __ZNSt3__122__compressed_pair_elemIRNS_9allocatorI4EdgeEELi1ELb0EE5__getB8ue170006Ev, symObjAddr: 0x4D6C, symBinAddr: 0x1000065DC, symSize: 0x18 }
  - { offsetInCU: 0x13C3A, offset: 0x13C3A, size: 0x8, addend: 0x0, symName: __ZNSt3__117__compressed_pairIP4EdgeRNS_9allocatorIS1_EEE5firstB8ue170006Ev, symObjAddr: 0x4D84, symBinAddr: 0x1000065F4, symSize: 0x24 }
  - { offsetInCU: 0x13C83, offset: 0x13C83, size: 0x8, addend: 0x0, symName: __ZNKSt3__111__move_loopINS_17_ClassicAlgPolicyEEclB8ue170006INS_16reverse_iteratorIP4EdgeEES7_S7_EENS_4pairIT_T1_EES9_T0_SA_, symObjAddr: 0x51F0, symBinAddr: 0x100006A60, symSize: 0xA8 }
  - { offsetInCU: 0x13CEE, offset: 0x13CEE, size: 0x8, addend: 0x0, symName: __ZNSt3__18_IterOpsINS_17_ClassicAlgPolicyEE11__iter_moveB8ue170006IRNS_16reverse_iteratorIP4EdgeEEEENS_9enable_ifIXsr12is_referenceIDTdeclsr3stdE7declvalIRT_EEEEE5valueEDTclsr3stdE4movedeclsr3stdE7declvalISB_EEEEE4typeEOSA_, symObjAddr: 0x53F8, symBinAddr: 0x100006C68, symSize: 0x28 }
  - { offsetInCU: 0x13D1A, offset: 0x13D1A, size: 0x8, addend: 0x0, symName: __ZNSt3__18_IterOpsINS_17_ClassicAlgPolicyEE25__validate_iter_referenceB8ue170006IRNS_16reverse_iteratorIP4EdgeEEEEvv, symObjAddr: 0x5420, symBinAddr: 0x100006C90, symSize: 0x4 }
  - { offsetInCU: 0x13D38, offset: 0x13D38, size: 0x8, addend: 0x0, symName: __ZNSt3__118__unwrap_iter_implINS_16reverse_iteratorIP4EdgeEELb0EE8__unwrapB8ue170006ES4_, symObjAddr: 0x5424, symBinAddr: 0x100006C94, symSize: 0x24 }
  - { offsetInCU: 0x13D5B, offset: 0x13D5B, size: 0x8, addend: 0x0, symName: __ZNSt3__14pairINS_16reverse_iteratorIP4EdgeEES4_EC1B8ue170006ERKS4_S7_, symObjAddr: 0x5448, symBinAddr: 0x100006CB8, symSize: 0x3C }
  - { offsetInCU: 0x13DA1, offset: 0x13DA1, size: 0x8, addend: 0x0, symName: __ZNSt3__14pairINS_16reverse_iteratorIP4EdgeEES4_EC2B8ue170006ERKS4_S7_, symObjAddr: 0x5484, symBinAddr: 0x100006CF4, symSize: 0x34 }
  - { offsetInCU: 0x13DE7, offset: 0x13DE7, size: 0x8, addend: 0x0, symName: __ZNSt3__118__unwrap_iter_implINS_16reverse_iteratorIP4EdgeEELb0EE8__rewrapB8ue170006ES4_S4_, symObjAddr: 0x54B8, symBinAddr: 0x100006D28, symSize: 0x2C }
  - { offsetInCU: 0x13E15, offset: 0x13E15, size: 0x8, addend: 0x0, symName: __ZNSt3__114__split_bufferI4EdgeRNS_9allocatorIS1_EEED2Ev, symObjAddr: 0x54E4, symBinAddr: 0x100006D54, symSize: 0x80 }
  - { offsetInCU: 0x13E41, offset: 0x13E41, size: 0x8, addend: 0x0, symName: __ZNSt3__114__split_bufferI4EdgeRNS_9allocatorIS1_EEE5clearB8ue170006Ev, symObjAddr: 0x5564, symBinAddr: 0x100006DD4, symSize: 0x28 }
  - { offsetInCU: 0x13E67, offset: 0x13E67, size: 0x8, addend: 0x0, symName: __ZNKSt3__114__split_bufferI4EdgeRNS_9allocatorIS1_EEE8capacityB8ue170006Ev, symObjAddr: 0x558C, symBinAddr: 0x100006DFC, symSize: 0x40 }
  - { offsetInCU: 0x13E8D, offset: 0x13E8D, size: 0x8, addend: 0x0, symName: __ZNSt3__114__split_bufferI4EdgeRNS_9allocatorIS1_EEE17__destruct_at_endB8ue170006EPS1_, symObjAddr: 0x55CC, symBinAddr: 0x100006E3C, symSize: 0x2C }
  - { offsetInCU: 0x13EC1, offset: 0x13EC1, size: 0x8, addend: 0x0, symName: __ZNSt3__114__split_bufferI4EdgeRNS_9allocatorIS1_EEE17__destruct_at_endB8ue170006EPS1_NS_17integral_constantIbLb0EEE, symObjAddr: 0x55F8, symBinAddr: 0x100006E68, symSize: 0x94 }
  - { offsetInCU: 0x13F02, offset: 0x13F02, size: 0x8, addend: 0x0, symName: __ZNKSt3__114__split_bufferI4EdgeRNS_9allocatorIS1_EEE9__end_capB8ue170006Ev, symObjAddr: 0x568C, symBinAddr: 0x100006EFC, symSize: 0x28 }
  - { offsetInCU: 0x13F28, offset: 0x13F28, size: 0x8, addend: 0x0, symName: __ZNKSt3__117__compressed_pairIP4EdgeRNS_9allocatorIS1_EEE5firstB8ue170006Ev, symObjAddr: 0x56B4, symBinAddr: 0x100006F24, symSize: 0x24 }
  - { offsetInCU: 0x13F4E, offset: 0x13F4E, size: 0x8, addend: 0x0, symName: __ZN4EdgeC2Eiii, symObjAddr: 0x56D8, symBinAddr: 0x100006F48, symSize: 0x38 }
  - { offsetInCU: 0x13FA2, offset: 0x13FA2, size: 0x8, addend: 0x0, symName: __ZNSt3__16vectorIiNS_9allocatorIiEEEC1B8ue170006Ev, symObjAddr: 0x5710, symBinAddr: 0x100006F80, symSize: 0x2C }
  - { offsetInCU: 0x13FCC, offset: 0x13FCC, size: 0x8, addend: 0x0, symName: __ZNSt3__16vectorIiNS_9allocatorIiEEEC1EmRKi, symObjAddr: 0x573C, symBinAddr: 0x100006FAC, symSize: 0x3C }
  - { offsetInCU: 0x14016, offset: 0x14016, size: 0x8, addend: 0x0, symName: __ZNSt3__16vectorIiNS_9allocatorIiEEEixB8ue170006Em, symObjAddr: 0x5778, symBinAddr: 0x100006FE8, symSize: 0x24 }
  - { offsetInCU: 0x1404D, offset: 0x1404D, size: 0x8, addend: 0x0, symName: __ZNSt3__16vectorI4EdgeNS_9allocatorIS1_EEE5beginB8ue170006Ev, symObjAddr: 0x579C, symBinAddr: 0x10000700C, symSize: 0x30 }
  - { offsetInCU: 0x14075, offset: 0x14075, size: 0x8, addend: 0x0, symName: __ZNSt3__16vectorI4EdgeNS_9allocatorIS1_EEE3endB8ue170006Ev, symObjAddr: 0x57CC, symBinAddr: 0x10000703C, symSize: 0x30 }
  - { offsetInCU: 0x1409D, offset: 0x1409D, size: 0x8, addend: 0x0, symName: __ZNKSt3__111__wrap_iterIP4EdgeEdeB8ue170006Ev, symObjAddr: 0x5830, symBinAddr: 0x1000070A0, symSize: 0x18 }
  - { offsetInCU: 0x140C3, offset: 0x140C3, size: 0x8, addend: 0x0, symName: __ZNSt3__111__wrap_iterIP4EdgeEppB8ue170006Ev, symObjAddr: 0x5848, symBinAddr: 0x1000070B8, symSize: 0x20 }
  - { offsetInCU: 0x140E9, offset: 0x140E9, size: 0x8, addend: 0x0, symName: __ZNSt3__16vectorIiNS_9allocatorIiEEE9push_backB8ue170006ERKi, symObjAddr: 0x5868, symBinAddr: 0x1000070D8, symSize: 0x6C }
  - { offsetInCU: 0x14120, offset: 0x14120, size: 0x8, addend: 0x0, symName: __ZNKSt3__16vectorIiNS_9allocatorIiEEE4sizeB8ue170006Ev, symObjAddr: 0x58D4, symBinAddr: 0x100007144, symSize: 0x28 }
  - { offsetInCU: 0x14146, offset: 0x14146, size: 0x8, addend: 0x0, symName: __ZNSt3__16vectorIiNS_9allocatorIiEEED1B8ue170006Ev, symObjAddr: 0x58FC, symBinAddr: 0x10000716C, symSize: 0x2C }
  - { offsetInCU: 0x14170, offset: 0x14170, size: 0x8, addend: 0x0, symName: __ZNSt3__16vectorIiNS_9allocatorIiEEEC2B8ue170006Ev, symObjAddr: 0x5928, symBinAddr: 0x100007198, symSize: 0x44 }
  - { offsetInCU: 0x1419A, offset: 0x1419A, size: 0x8, addend: 0x0, symName: __ZNSt3__117__compressed_pairIPiNS_9allocatorIiEEEC1B8ue170006IDnNS_18__default_init_tagEEEOT_OT0_, symObjAddr: 0x596C, symBinAddr: 0x1000071DC, symSize: 0x3C }
  - { offsetInCU: 0x141F2, offset: 0x141F2, size: 0x8, addend: 0x0, symName: __ZNSt3__117__compressed_pairIPiNS_9allocatorIiEEEC2B8ue170006IDnNS_18__default_init_tagEEEOT_OT0_, symObjAddr: 0x59A8, symBinAddr: 0x100007218, symSize: 0x40 }
  - { offsetInCU: 0x1424A, offset: 0x1424A, size: 0x8, addend: 0x0, symName: __ZNSt3__122__compressed_pair_elemIPiLi0ELb0EEC2B8ue170006IDnvEEOT_, symObjAddr: 0x59E8, symBinAddr: 0x100007258, symSize: 0x1C }
  - { offsetInCU: 0x1428C, offset: 0x1428C, size: 0x8, addend: 0x0, symName: __ZNSt3__122__compressed_pair_elemINS_9allocatorIiEELi1ELb1EEC2B8ue170006ENS_18__default_init_tagE, symObjAddr: 0x5A04, symBinAddr: 0x100007274, symSize: 0x2C }
  - { offsetInCU: 0x142C1, offset: 0x142C1, size: 0x8, addend: 0x0, symName: __ZNSt3__19allocatorIiEC2B8ue170006Ev, symObjAddr: 0x5A30, symBinAddr: 0x1000072A0, symSize: 0x2C }
  - { offsetInCU: 0x142EB, offset: 0x142EB, size: 0x8, addend: 0x0, symName: __ZNSt3__116__non_trivial_ifILb1ENS_9allocatorIiEEEC2B8ue170006Ev, symObjAddr: 0x5A5C, symBinAddr: 0x1000072CC, symSize: 0x14 }
  - { offsetInCU: 0x14315, offset: 0x14315, size: 0x8, addend: 0x0, symName: __ZNSt3__16vectorIiNS_9allocatorIiEEEC2EmRKi, symObjAddr: 0x5A70, symBinAddr: 0x1000072E0, symSize: 0xE4 }
  - { offsetInCU: 0x14374, offset: 0x14374, size: 0x8, addend: 0x0, symName: __ZNSt3__16vectorIiNS_9allocatorIiEEE16__destroy_vectorC1B8ue170006ERS3_, symObjAddr: 0x5B94, symBinAddr: 0x100007404, symSize: 0x34 }
  - { offsetInCU: 0x143AD, offset: 0x143AD, size: 0x8, addend: 0x0, symName: __ZNSt3__16vectorIiNS_9allocatorIiEEE11__vallocateB8ue170006Em, symObjAddr: 0x5BC8, symBinAddr: 0x100007438, symSize: 0xAC }
  - { offsetInCU: 0x143F1, offset: 0x143F1, size: 0x8, addend: 0x0, symName: __ZNSt3__16vectorIiNS_9allocatorIiEEE18__construct_at_endEmRKi, symObjAddr: 0x5C74, symBinAddr: 0x1000074E4, symSize: 0xD8 }
  - { offsetInCU: 0x14473, offset: 0x14473, size: 0x8, addend: 0x0, symName: __ZNSt3__128__exception_guard_exceptionsINS_6vectorIiNS_9allocatorIiEEE16__destroy_vectorEE10__completeB8ue170006Ev, symObjAddr: 0x5D4C, symBinAddr: 0x1000075BC, symSize: 0x1C }
  - { offsetInCU: 0x14499, offset: 0x14499, size: 0x8, addend: 0x0, symName: __ZNSt3__128__exception_guard_exceptionsINS_6vectorIiNS_9allocatorIiEEE16__destroy_vectorEED1B8ue170006Ev, symObjAddr: 0x5D68, symBinAddr: 0x1000075D8, symSize: 0x2C }
  - { offsetInCU: 0x144C3, offset: 0x144C3, size: 0x8, addend: 0x0, symName: __ZNSt3__128__exception_guard_exceptionsINS_6vectorIiNS_9allocatorIiEEE16__destroy_vectorEEC1B8ue170006ES5_, symObjAddr: 0x5D94, symBinAddr: 0x100007604, symSize: 0x34 }
  - { offsetInCU: 0x144FB, offset: 0x144FB, size: 0x8, addend: 0x0, symName: __ZNSt3__128__exception_guard_exceptionsINS_6vectorIiNS_9allocatorIiEEE16__destroy_vectorEEC2B8ue170006ES5_, symObjAddr: 0x5DC8, symBinAddr: 0x100007638, symSize: 0x24 }
  - { offsetInCU: 0x14533, offset: 0x14533, size: 0x8, addend: 0x0, symName: __ZNSt3__16vectorIiNS_9allocatorIiEEE16__destroy_vectorC2B8ue170006ERS3_, symObjAddr: 0x5DEC, symBinAddr: 0x10000765C, symSize: 0x20 }
  - { offsetInCU: 0x1456C, offset: 0x1456C, size: 0x8, addend: 0x0, symName: __ZNKSt3__16vectorIiNS_9allocatorIiEEE8max_sizeEv, symObjAddr: 0x5E0C, symBinAddr: 0x10000767C, symSize: 0x74 }
  - { offsetInCU: 0x14594, offset: 0x14594, size: 0x8, addend: 0x0, symName: __ZNKSt3__16vectorIiNS_9allocatorIiEEE20__throw_length_errorB8ue170006Ev, symObjAddr: 0x5E80, symBinAddr: 0x1000076F0, symSize: 0x1C }
  - { offsetInCU: 0x145BA, offset: 0x145BA, size: 0x8, addend: 0x0, symName: __ZNSt3__16vectorIiNS_9allocatorIiEEE7__allocB8ue170006Ev, symObjAddr: 0x5EDC, symBinAddr: 0x10000774C, symSize: 0x28 }
  - { offsetInCU: 0x145E0, offset: 0x145E0, size: 0x8, addend: 0x0, symName: __ZNSt3__16vectorIiNS_9allocatorIiEEE9__end_capB8ue170006Ev, symObjAddr: 0x5F04, symBinAddr: 0x100007774, symSize: 0x28 }
  - { offsetInCU: 0x14606, offset: 0x14606, size: 0x8, addend: 0x0, symName: __ZNKSt3__16vectorIiNS_9allocatorIiEEE14__annotate_newB8ue170006Em, symObjAddr: 0x5F2C, symBinAddr: 0x10000779C, symSize: 0xAC }
  - { offsetInCU: 0x14645, offset: 0x14645, size: 0x8, addend: 0x0, symName: __ZNSt3__116allocator_traitsINS_9allocatorIiEEE8max_sizeB8ue170006IS2_vEEmRKS2_, symObjAddr: 0x5FD8, symBinAddr: 0x100007848, symSize: 0x24 }
  - { offsetInCU: 0x14673, offset: 0x14673, size: 0x8, addend: 0x0, symName: __ZNKSt3__16vectorIiNS_9allocatorIiEEE7__allocB8ue170006Ev, symObjAddr: 0x5FFC, symBinAddr: 0x10000786C, symSize: 0x28 }
  - { offsetInCU: 0x14699, offset: 0x14699, size: 0x8, addend: 0x0, symName: __ZNKSt3__19allocatorIiE8max_sizeB8ue170006Ev, symObjAddr: 0x6024, symBinAddr: 0x100007894, symSize: 0x14 }
  - { offsetInCU: 0x146BF, offset: 0x146BF, size: 0x8, addend: 0x0, symName: __ZNKSt3__117__compressed_pairIPiNS_9allocatorIiEEE6secondB8ue170006Ev, symObjAddr: 0x6038, symBinAddr: 0x1000078A8, symSize: 0x24 }
  - { offsetInCU: 0x146E5, offset: 0x146E5, size: 0x8, addend: 0x0, symName: __ZNKSt3__122__compressed_pair_elemINS_9allocatorIiEELi1ELb1EE5__getB8ue170006Ev, symObjAddr: 0x605C, symBinAddr: 0x1000078CC, symSize: 0x14 }
  - { offsetInCU: 0x1470B, offset: 0x1470B, size: 0x8, addend: 0x0, symName: __ZNSt3__19allocatorIiE8allocateB8ue170006Em, symObjAddr: 0x6070, symBinAddr: 0x1000078E0, symSize: 0x84 }
  - { offsetInCU: 0x1473F, offset: 0x1473F, size: 0x8, addend: 0x0, symName: __ZNSt3__117__compressed_pairIPiNS_9allocatorIiEEE6secondB8ue170006Ev, symObjAddr: 0x60F4, symBinAddr: 0x100007964, symSize: 0x24 }
  - { offsetInCU: 0x14765, offset: 0x14765, size: 0x8, addend: 0x0, symName: __ZNSt3__122__compressed_pair_elemINS_9allocatorIiEELi1ELb1EE5__getB8ue170006Ev, symObjAddr: 0x6118, symBinAddr: 0x100007988, symSize: 0x14 }
  - { offsetInCU: 0x1478B, offset: 0x1478B, size: 0x8, addend: 0x0, symName: __ZNSt3__117__compressed_pairIPiNS_9allocatorIiEEE5firstB8ue170006Ev, symObjAddr: 0x612C, symBinAddr: 0x10000799C, symSize: 0x24 }
  - { offsetInCU: 0x147B1, offset: 0x147B1, size: 0x8, addend: 0x0, symName: __ZNSt3__122__compressed_pair_elemIPiLi0ELb0EE5__getB8ue170006Ev, symObjAddr: 0x6150, symBinAddr: 0x1000079C0, symSize: 0x14 }
  - { offsetInCU: 0x147D7, offset: 0x147D7, size: 0x8, addend: 0x0, symName: __ZNKSt3__16vectorIiNS_9allocatorIiEEE31__annotate_contiguous_containerB8ue170006EPKvS5_S5_S5_, symObjAddr: 0x6164, symBinAddr: 0x1000079D4, symSize: 0x20 }
  - { offsetInCU: 0x14829, offset: 0x14829, size: 0x8, addend: 0x0, symName: __ZNKSt3__16vectorIiNS_9allocatorIiEEE4dataB8ue170006Ev, symObjAddr: 0x6184, symBinAddr: 0x1000079F4, symSize: 0x28 }
  - { offsetInCU: 0x1484F, offset: 0x1484F, size: 0x8, addend: 0x0, symName: __ZNKSt3__16vectorIiNS_9allocatorIiEEE8capacityB8ue170006Ev, symObjAddr: 0x61AC, symBinAddr: 0x100007A1C, symSize: 0x40 }
  - { offsetInCU: 0x14875, offset: 0x14875, size: 0x8, addend: 0x0, symName: __ZNKSt3__16vectorIiNS_9allocatorIiEEE9__end_capB8ue170006Ev, symObjAddr: 0x6200, symBinAddr: 0x100007A70, symSize: 0x28 }
  - { offsetInCU: 0x1489B, offset: 0x1489B, size: 0x8, addend: 0x0, symName: __ZNKSt3__117__compressed_pairIPiNS_9allocatorIiEEE5firstB8ue170006Ev, symObjAddr: 0x6228, symBinAddr: 0x100007A98, symSize: 0x24 }
  - { offsetInCU: 0x148C1, offset: 0x148C1, size: 0x8, addend: 0x0, symName: __ZNKSt3__122__compressed_pair_elemIPiLi0ELb0EE5__getB8ue170006Ev, symObjAddr: 0x624C, symBinAddr: 0x100007ABC, symSize: 0x14 }
  - { offsetInCU: 0x14900, offset: 0x14900, size: 0x8, addend: 0x0, symName: __ZNSt3__16vectorIiNS_9allocatorIiEEE21_ConstructTransactionC1B8ue170006ERS3_m, symObjAddr: 0x6260, symBinAddr: 0x100007AD0, symSize: 0x3C }
  - { offsetInCU: 0x14948, offset: 0x14948, size: 0x8, addend: 0x0, symName: __ZNSt3__116allocator_traitsINS_9allocatorIiEEE9constructB8ue170006IiJRKiEvEEvRS2_PT_DpOT0_, symObjAddr: 0x629C, symBinAddr: 0x100007B0C, symSize: 0x34 }
  - { offsetInCU: 0x1499F, offset: 0x1499F, size: 0x8, addend: 0x0, symName: __ZNSt3__16vectorIiNS_9allocatorIiEEE21_ConstructTransactionD1B8ue170006Ev, symObjAddr: 0x62D0, symBinAddr: 0x100007B40, symSize: 0x2C }
  - { offsetInCU: 0x149C9, offset: 0x149C9, size: 0x8, addend: 0x0, symName: __ZNSt3__16vectorIiNS_9allocatorIiEEE21_ConstructTransactionC2B8ue170006ERS3_m, symObjAddr: 0x62FC, symBinAddr: 0x100007B6C, symSize: 0x44 }
  - { offsetInCU: 0x14A11, offset: 0x14A11, size: 0x8, addend: 0x0, symName: __ZNSt3__19allocatorIiE9constructB8ue170006IiJRKiEEEvPT_DpOT0_, symObjAddr: 0x6340, symBinAddr: 0x100007BB0, symSize: 0x28 }
  - { offsetInCU: 0x14A67, offset: 0x14A67, size: 0x8, addend: 0x0, symName: __ZNSt3__16vectorIiNS_9allocatorIiEEE21_ConstructTransactionD2B8ue170006Ev, symObjAddr: 0x6368, symBinAddr: 0x100007BD8, symSize: 0x20 }
  - { offsetInCU: 0x14A91, offset: 0x14A91, size: 0x8, addend: 0x0, symName: __ZNSt3__128__exception_guard_exceptionsINS_6vectorIiNS_9allocatorIiEEE16__destroy_vectorEED2B8ue170006Ev, symObjAddr: 0x6388, symBinAddr: 0x100007BF8, symSize: 0x48 }
  - { offsetInCU: 0x14ABB, offset: 0x14ABB, size: 0x8, addend: 0x0, symName: __ZNSt3__16vectorIiNS_9allocatorIiEEE16__destroy_vectorclB8ue170006Ev, symObjAddr: 0x63D0, symBinAddr: 0x100007C40, symSize: 0x90 }
  - { offsetInCU: 0x14AE1, offset: 0x14AE1, size: 0x8, addend: 0x0, symName: __ZNSt3__16vectorIiNS_9allocatorIiEEE7__clearB8ue170006Ev, symObjAddr: 0x6460, symBinAddr: 0x100007CD0, symSize: 0x28 }
  - { offsetInCU: 0x14B07, offset: 0x14B07, size: 0x8, addend: 0x0, symName: __ZNKSt3__16vectorIiNS_9allocatorIiEEE17__annotate_deleteB8ue170006Ev, symObjAddr: 0x6488, symBinAddr: 0x100007CF8, symSize: 0xB8 }
  - { offsetInCU: 0x14B2D, offset: 0x14B2D, size: 0x8, addend: 0x0, symName: __ZNSt3__116allocator_traitsINS_9allocatorIiEEE10deallocateB8ue170006ERS2_Pim, symObjAddr: 0x6540, symBinAddr: 0x100007DB0, symSize: 0x34 }
  - { offsetInCU: 0x14B6F, offset: 0x14B6F, size: 0x8, addend: 0x0, symName: __ZNSt3__16vectorIiNS_9allocatorIiEEE22__base_destruct_at_endB8ue170006EPi, symObjAddr: 0x6574, symBinAddr: 0x100007DE4, symSize: 0xA0 }
  - { offsetInCU: 0x14BB3, offset: 0x14BB3, size: 0x8, addend: 0x0, symName: __ZNSt3__116allocator_traitsINS_9allocatorIiEEE7destroyB8ue170006IivEEvRS2_PT_, symObjAddr: 0x6614, symBinAddr: 0x100007E84, symSize: 0x2C }
  - { offsetInCU: 0x14BF0, offset: 0x14BF0, size: 0x8, addend: 0x0, symName: __ZNSt3__19allocatorIiE7destroyB8ue170006EPi, symObjAddr: 0x6640, symBinAddr: 0x100007EB0, symSize: 0x14 }
  - { offsetInCU: 0x14C24, offset: 0x14C24, size: 0x8, addend: 0x0, symName: __ZNSt3__19allocatorIiE10deallocateB8ue170006EPim, symObjAddr: 0x6654, symBinAddr: 0x100007EC4, symSize: 0x70 }
  - { offsetInCU: 0x14C66, offset: 0x14C66, size: 0x8, addend: 0x0, symName: __ZNSt3__16vectorI4EdgeNS_9allocatorIS1_EEE11__make_iterB8ue170006EPS1_, symObjAddr: 0x66C4, symBinAddr: 0x100007F34, symSize: 0x30 }
  - { offsetInCU: 0x14C9B, offset: 0x14C9B, size: 0x8, addend: 0x0, symName: __ZNSt3__111__wrap_iterIP4EdgeEC1B8ue170006ES2_, symObjAddr: 0x66F4, symBinAddr: 0x100007F64, symSize: 0x34 }
  - { offsetInCU: 0x14CD3, offset: 0x14CD3, size: 0x8, addend: 0x0, symName: __ZNSt3__111__wrap_iterIP4EdgeEC2B8ue170006ES2_, symObjAddr: 0x6728, symBinAddr: 0x100007F98, symSize: 0x20 }
  - { offsetInCU: 0x14D0B, offset: 0x14D0B, size: 0x8, addend: 0x0, symName: __ZNKSt3__111__wrap_iterIP4EdgeE4baseB8ue170006Ev, symObjAddr: 0x6790, symBinAddr: 0x100008000, symSize: 0x18 }
  - { offsetInCU: 0x14D31, offset: 0x14D31, size: 0x8, addend: 0x0, symName: __ZNSt3__16vectorIiNS_9allocatorIiEEE22__construct_one_at_endB8ue170006IJRKiEEEvDpOT_, symObjAddr: 0x67A8, symBinAddr: 0x100008018, symSize: 0x98 }
  - { offsetInCU: 0x14D80, offset: 0x14D80, size: 0x8, addend: 0x0, symName: __ZNSt3__16vectorIiNS_9allocatorIiEEE21__push_back_slow_pathIRKiEEvOT_, symObjAddr: 0x6840, symBinAddr: 0x1000080B0, symSize: 0xE0 }
  - { offsetInCU: 0x14DDE, offset: 0x14DDE, size: 0x8, addend: 0x0, symName: __ZNKSt3__16vectorIiNS_9allocatorIiEEE11__recommendB8ue170006Em, symObjAddr: 0x6920, symBinAddr: 0x100008190, symSize: 0xB4 }
  - { offsetInCU: 0x14E33, offset: 0x14E33, size: 0x8, addend: 0x0, symName: __ZNSt3__114__split_bufferIiRNS_9allocatorIiEEEC1EmmS3_, symObjAddr: 0x69D4, symBinAddr: 0x100008244, symSize: 0x44 }
  - { offsetInCU: 0x14E89, offset: 0x14E89, size: 0x8, addend: 0x0, symName: __ZNSt3__114__split_bufferIiRNS_9allocatorIiEEED1Ev, symObjAddr: 0x6B28, symBinAddr: 0x100008398, symSize: 0x2C }
  - { offsetInCU: 0x14EB5, offset: 0x14EB5, size: 0x8, addend: 0x0, symName: __ZNSt3__114__split_bufferIiRNS_9allocatorIiEEEC2EmmS3_, symObjAddr: 0x6B54, symBinAddr: 0x1000083C4, symSize: 0xD4 }
  - { offsetInCU: 0x14F29, offset: 0x14F29, size: 0x8, addend: 0x0, symName: __ZNSt3__117__compressed_pairIPiRNS_9allocatorIiEEEC1B8ue170006IDnS4_EEOT_OT0_, symObjAddr: 0x6C28, symBinAddr: 0x100008498, symSize: 0x3C }
  - { offsetInCU: 0x14F81, offset: 0x14F81, size: 0x8, addend: 0x0, symName: __ZNSt3__114__split_bufferIiRNS_9allocatorIiEEE7__allocB8ue170006Ev, symObjAddr: 0x6C64, symBinAddr: 0x1000084D4, symSize: 0x28 }
  - { offsetInCU: 0x14FA7, offset: 0x14FA7, size: 0x8, addend: 0x0, symName: __ZNSt3__114__split_bufferIiRNS_9allocatorIiEEE9__end_capB8ue170006Ev, symObjAddr: 0x6C8C, symBinAddr: 0x1000084FC, symSize: 0x28 }
  - { offsetInCU: 0x14FCD, offset: 0x14FCD, size: 0x8, addend: 0x0, symName: __ZNSt3__117__compressed_pairIPiRNS_9allocatorIiEEEC2B8ue170006IDnS4_EEOT_OT0_, symObjAddr: 0x6CB4, symBinAddr: 0x100008524, symSize: 0x48 }
  - { offsetInCU: 0x15025, offset: 0x15025, size: 0x8, addend: 0x0, symName: __ZNSt3__122__compressed_pair_elemIRNS_9allocatorIiEELi1ELb0EEC2B8ue170006IS3_vEEOT_, symObjAddr: 0x6CFC, symBinAddr: 0x10000856C, symSize: 0x20 }
  - { offsetInCU: 0x15067, offset: 0x15067, size: 0x8, addend: 0x0, symName: __ZNSt3__117__compressed_pairIPiRNS_9allocatorIiEEE6secondB8ue170006Ev, symObjAddr: 0x6D1C, symBinAddr: 0x10000858C, symSize: 0x28 }
  - { offsetInCU: 0x1508D, offset: 0x1508D, size: 0x8, addend: 0x0, symName: __ZNSt3__122__compressed_pair_elemIRNS_9allocatorIiEELi1ELb0EE5__getB8ue170006Ev, symObjAddr: 0x6D44, symBinAddr: 0x1000085B4, symSize: 0x18 }
  - { offsetInCU: 0x150B3, offset: 0x150B3, size: 0x8, addend: 0x0, symName: __ZNSt3__117__compressed_pairIPiRNS_9allocatorIiEEE5firstB8ue170006Ev, symObjAddr: 0x6D5C, symBinAddr: 0x1000085CC, symSize: 0x24 }
  - { offsetInCU: 0x150D9, offset: 0x150D9, size: 0x8, addend: 0x0, symName: __ZNSt3__116reverse_iteratorIPiEC1B8ue170006ES1_, symObjAddr: 0x6E68, symBinAddr: 0x1000086D8, symSize: 0x34 }
  - { offsetInCU: 0x15111, offset: 0x15111, size: 0x8, addend: 0x0, symName: __ZNKSt3__116reverse_iteratorIPiE4baseB8ue170006Ev, symObjAddr: 0x6E9C, symBinAddr: 0x10000870C, symSize: 0x18 }
  - { offsetInCU: 0x15137, offset: 0x15137, size: 0x8, addend: 0x0, symName: __ZNKSt3__116reverse_iteratorIPiEdeB8ue170006Ev, symObjAddr: 0x6F88, symBinAddr: 0x1000087F8, symSize: 0x28 }
  - { offsetInCU: 0x1516B, offset: 0x1516B, size: 0x8, addend: 0x0, symName: __ZNSt3__116reverse_iteratorIPiEppB8ue170006Ev, symObjAddr: 0x6FB0, symBinAddr: 0x100008820, symSize: 0x20 }
  - { offsetInCU: 0x15196, offset: 0x15196, size: 0x8, addend: 0x0, symName: __ZNSt3__119__to_address_helperINS_16reverse_iteratorIPiEEvE6__callB8ue170006ERKS3_, symObjAddr: 0x7048, symBinAddr: 0x1000088B8, symSize: 0x4C }
  - { offsetInCU: 0x151B9, offset: 0x151B9, size: 0x8, addend: 0x0, symName: __ZNKSt3__116reverse_iteratorIPiEptB8ue170006Ev, symObjAddr: 0x7094, symBinAddr: 0x100008904, symSize: 0x24 }
  - { offsetInCU: 0x151F8, offset: 0x151F8, size: 0x8, addend: 0x0, symName: __ZNKSt3__111__move_loopINS_17_ClassicAlgPolicyEEclB8ue170006INS_16reverse_iteratorIPiEES6_S6_EENS_4pairIT_T1_EES8_T0_S9_, symObjAddr: 0x7330, symBinAddr: 0x100008BA0, symSize: 0xA0 }
  - { offsetInCU: 0x15268, offset: 0x15268, size: 0x8, addend: 0x0, symName: __ZNSt3__18_IterOpsINS_17_ClassicAlgPolicyEE11__iter_moveB8ue170006IRNS_16reverse_iteratorIPiEEEENS_9enable_ifIXsr12is_referenceIDTdeclsr3stdE7declvalIRT_EEEEE5valueEDTclsr3stdE4movedeclsr3stdE7declvalISA_EEEEE4typeEOS9_, symObjAddr: 0x7530, symBinAddr: 0x100008DA0, symSize: 0x28 }
  - { offsetInCU: 0x15294, offset: 0x15294, size: 0x8, addend: 0x0, symName: __ZNSt3__18_IterOpsINS_17_ClassicAlgPolicyEE25__validate_iter_referenceB8ue170006IRNS_16reverse_iteratorIPiEEEEvv, symObjAddr: 0x7558, symBinAddr: 0x100008DC8, symSize: 0x4 }
  - { offsetInCU: 0x152B2, offset: 0x152B2, size: 0x8, addend: 0x0, symName: __ZNSt3__118__unwrap_iter_implINS_16reverse_iteratorIPiEELb0EE8__unwrapB8ue170006ES3_, symObjAddr: 0x755C, symBinAddr: 0x100008DCC, symSize: 0x24 }
  - { offsetInCU: 0x152D5, offset: 0x152D5, size: 0x8, addend: 0x0, symName: __ZNSt3__14pairINS_16reverse_iteratorIPiEES3_EC1B8ue170006ERKS3_S6_, symObjAddr: 0x7580, symBinAddr: 0x100008DF0, symSize: 0x3C }
  - { offsetInCU: 0x1531B, offset: 0x1531B, size: 0x8, addend: 0x0, symName: __ZNSt3__14pairINS_16reverse_iteratorIPiEES3_EC2B8ue170006ERKS3_S6_, symObjAddr: 0x75BC, symBinAddr: 0x100008E2C, symSize: 0x34 }
  - { offsetInCU: 0x15361, offset: 0x15361, size: 0x8, addend: 0x0, symName: __ZNSt3__118__unwrap_iter_implINS_16reverse_iteratorIPiEELb0EE8__rewrapB8ue170006ES3_S3_, symObjAddr: 0x75F0, symBinAddr: 0x100008E60, symSize: 0x2C }
  - { offsetInCU: 0x1538F, offset: 0x1538F, size: 0x8, addend: 0x0, symName: __ZNSt3__116reverse_iteratorIPiEC2B8ue170006ES1_, symObjAddr: 0x761C, symBinAddr: 0x100008E8C, symSize: 0x28 }
  - { offsetInCU: 0x153C7, offset: 0x153C7, size: 0x8, addend: 0x0, symName: __ZNSt3__114__split_bufferIiRNS_9allocatorIiEEED2Ev, symObjAddr: 0x7644, symBinAddr: 0x100008EB4, symSize: 0x80 }
  - { offsetInCU: 0x153F3, offset: 0x153F3, size: 0x8, addend: 0x0, symName: __ZNSt3__114__split_bufferIiRNS_9allocatorIiEEE5clearB8ue170006Ev, symObjAddr: 0x76C4, symBinAddr: 0x100008F34, symSize: 0x28 }
  - { offsetInCU: 0x15419, offset: 0x15419, size: 0x8, addend: 0x0, symName: __ZNKSt3__114__split_bufferIiRNS_9allocatorIiEEE8capacityB8ue170006Ev, symObjAddr: 0x76EC, symBinAddr: 0x100008F5C, symSize: 0x40 }
  - { offsetInCU: 0x1543F, offset: 0x1543F, size: 0x8, addend: 0x0, symName: __ZNSt3__114__split_bufferIiRNS_9allocatorIiEEE17__destruct_at_endB8ue170006EPi, symObjAddr: 0x772C, symBinAddr: 0x100008F9C, symSize: 0x2C }
  - { offsetInCU: 0x15473, offset: 0x15473, size: 0x8, addend: 0x0, symName: __ZNSt3__114__split_bufferIiRNS_9allocatorIiEEE17__destruct_at_endB8ue170006EPiNS_17integral_constantIbLb0EEE, symObjAddr: 0x7758, symBinAddr: 0x100008FC8, symSize: 0x94 }
  - { offsetInCU: 0x154B4, offset: 0x154B4, size: 0x8, addend: 0x0, symName: __ZNKSt3__114__split_bufferIiRNS_9allocatorIiEEE9__end_capB8ue170006Ev, symObjAddr: 0x77EC, symBinAddr: 0x10000905C, symSize: 0x28 }
  - { offsetInCU: 0x154DA, offset: 0x154DA, size: 0x8, addend: 0x0, symName: __ZNKSt3__117__compressed_pairIPiRNS_9allocatorIiEEE5firstB8ue170006Ev, symObjAddr: 0x7814, symBinAddr: 0x100009084, symSize: 0x24 }
  - { offsetInCU: 0x15500, offset: 0x15500, size: 0x8, addend: 0x0, symName: __ZNSt3__16vectorIiNS_9allocatorIiEEED2B8ue170006Ev, symObjAddr: 0x7838, symBinAddr: 0x1000090A8, symSize: 0x3C }
  - { offsetInCU: 0x1552A, offset: 0x1552A, size: 0x8, addend: 0x0, symName: __ZN5GraphD2Ev, symObjAddr: 0x7874, symBinAddr: 0x1000090E4, symSize: 0x30 }
  - { offsetInCU: 0x15556, offset: 0x15556, size: 0x8, addend: 0x0, symName: __ZNSt3__114basic_ifstreamIcNS_11char_traitsIcEEED2Ev, symObjAddr: 0x78A4, symBinAddr: 0x100009114, symSize: 0x9C }
  - { offsetInCU: 0x15590, offset: 0x15590, size: 0x8, addend: 0x0, symName: __ZTv0_n24_NSt3__114basic_ifstreamIcNS_11char_traitsIcEEED1Ev, symObjAddr: 0x7940, symBinAddr: 0x1000091B0, symSize: 0x28 }
  - { offsetInCU: 0x155A7, offset: 0x155A7, size: 0x8, addend: 0x0, symName: __ZNKSt3__19basic_iosIcNS_11char_traitsIcEEE5widenB8ue170006Ec, symObjAddr: 0x7968, symBinAddr: 0x1000091D8, symSize: 0x8C }
  - { offsetInCU: 0x15610, offset: 0x15610, size: 0x8, addend: 0x0, symName: __ZNKSt3__15ctypeIcE5widenB8ue170006Ec, symObjAddr: 0x7A20, symBinAddr: 0x100009290, symSize: 0x38 }
  - { offsetInCU: 0x15645, offset: 0x15645, size: 0x8, addend: 0x0, symName: __ZNSt3__111char_traitsIcE6lengthB8ue170006EPKc, symObjAddr: 0x7C4C, symBinAddr: 0x1000094BC, symSize: 0x48 }
  - { offsetInCU: 0x15686, offset: 0x15686, size: 0x8, addend: 0x0, symName: __ZNKSt3__113basic_ostreamIcNS_11char_traitsIcEEE6sentrycvbB8ue170006Ev, symObjAddr: 0x7C94, symBinAddr: 0x100009504, symSize: 0x1C }
  - { offsetInCU: 0x156AC, offset: 0x156AC, size: 0x8, addend: 0x0, symName: __ZNSt3__119ostreambuf_iteratorIcNS_11char_traitsIcEEEC1B8ue170006ERNS_13basic_ostreamIcS2_EE, symObjAddr: 0x7EF8, symBinAddr: 0x100009768, symSize: 0x34 }
  - { offsetInCU: 0x156E4, offset: 0x156E4, size: 0x8, addend: 0x0, symName: __ZNKSt3__18ios_base5flagsB8ue170006Ev, symObjAddr: 0x7F2C, symBinAddr: 0x10000979C, symSize: 0x18 }
  - { offsetInCU: 0x1570C, offset: 0x1570C, size: 0x8, addend: 0x0, symName: __ZNKSt3__19basic_iosIcNS_11char_traitsIcEEE4fillB8ue170006Ev, symObjAddr: 0x7F44, symBinAddr: 0x1000097B4, symSize: 0x64 }
  - { offsetInCU: 0x15734, offset: 0x15734, size: 0x8, addend: 0x0, symName: __ZNKSt3__119ostreambuf_iteratorIcNS_11char_traitsIcEEE6failedB8ue170006Ev, symObjAddr: 0x7FA8, symBinAddr: 0x100009818, symSize: 0x24 }
  - { offsetInCU: 0x1575A, offset: 0x1575A, size: 0x8, addend: 0x0, symName: __ZNSt3__19basic_iosIcNS_11char_traitsIcEEE8setstateB8ue170006Ej, symObjAddr: 0x7FCC, symBinAddr: 0x10000983C, symSize: 0x2C }
  - { offsetInCU: 0x1578F, offset: 0x1578F, size: 0x8, addend: 0x0, symName: __ZNKSt3__18ios_base5widthB8ue170006Ev, symObjAddr: 0x7FF8, symBinAddr: 0x100009868, symSize: 0x18 }
  - { offsetInCU: 0x157B7, offset: 0x157B7, size: 0x8, addend: 0x0, symName: __ZNSt3__115basic_streambufIcNS_11char_traitsIcEEE5sputnB8ue170006EPKcl, symObjAddr: 0x8010, symBinAddr: 0x100009880, symSize: 0x3C }
  - { offsetInCU: 0x157F9, offset: 0x157F9, size: 0x8, addend: 0x0, symName: __ZNSt3__112basic_stringIcNS_11char_traitsIcEENS_9allocatorIcEEEC1B8ue170006Emc, symObjAddr: 0x804C, symBinAddr: 0x1000098BC, symSize: 0x3C }
  - { offsetInCU: 0x15841, offset: 0x15841, size: 0x8, addend: 0x0, symName: __ZNKSt3__112basic_stringIcNS_11char_traitsIcEENS_9allocatorIcEEE4dataB8ue170006Ev, symObjAddr: 0x8088, symBinAddr: 0x1000098F8, symSize: 0x28 }
  - { offsetInCU: 0x15867, offset: 0x15867, size: 0x8, addend: 0x0, symName: __ZNSt3__18ios_base5widthB8ue170006El, symObjAddr: 0x80B0, symBinAddr: 0x100009920, symSize: 0x2C }
  - { offsetInCU: 0x158AD, offset: 0x158AD, size: 0x8, addend: 0x0, symName: __ZNSt3__112basic_stringIcNS_11char_traitsIcEENS_9allocatorIcEEEC2B8ue170006Emc, symObjAddr: 0x80DC, symBinAddr: 0x10000994C, symSize: 0x4C }
  - { offsetInCU: 0x158F5, offset: 0x158F5, size: 0x8, addend: 0x0, symName: __ZNSt3__117__compressed_pairINS_12basic_stringIcNS_11char_traitsIcEENS_9allocatorIcEEE5__repES5_EC1B8ue170006INS_18__default_init_tagESA_EEOT_OT0_, symObjAddr: 0x8128, symBinAddr: 0x100009998, symSize: 0x3C }
  - { offsetInCU: 0x1594D, offset: 0x1594D, size: 0x8, addend: 0x0, symName: __ZNSt3__117__compressed_pairINS_12basic_stringIcNS_11char_traitsIcEENS_9allocatorIcEEE5__repES5_EC2B8ue170006INS_18__default_init_tagESA_EEOT_OT0_, symObjAddr: 0x8164, symBinAddr: 0x1000099D4, symSize: 0x3C }
  - { offsetInCU: 0x159A5, offset: 0x159A5, size: 0x8, addend: 0x0, symName: __ZNSt3__122__compressed_pair_elemINS_12basic_stringIcNS_11char_traitsIcEENS_9allocatorIcEEE5__repELi0ELb0EEC2B8ue170006ENS_18__default_init_tagE, symObjAddr: 0x81A0, symBinAddr: 0x100009A10, symSize: 0x14 }
  - { offsetInCU: 0x159DA, offset: 0x159DA, size: 0x8, addend: 0x0, symName: __ZNSt3__122__compressed_pair_elemINS_9allocatorIcEELi1ELb1EEC2B8ue170006ENS_18__default_init_tagE, symObjAddr: 0x81B4, symBinAddr: 0x100009A24, symSize: 0x2C }
  - { offsetInCU: 0x15A0F, offset: 0x15A0F, size: 0x8, addend: 0x0, symName: __ZNSt3__19allocatorIcEC2B8ue170006Ev, symObjAddr: 0x81E0, symBinAddr: 0x100009A50, symSize: 0x2C }
  - { offsetInCU: 0x15A39, offset: 0x15A39, size: 0x8, addend: 0x0, symName: __ZNSt3__116__non_trivial_ifILb1ENS_9allocatorIcEEEC2B8ue170006Ev, symObjAddr: 0x820C, symBinAddr: 0x100009A7C, symSize: 0x14 }
  - { offsetInCU: 0x15A63, offset: 0x15A63, size: 0x8, addend: 0x0, symName: __ZNKSt3__112basic_stringIcNS_11char_traitsIcEENS_9allocatorIcEEE13__get_pointerB8ue170006Ev, symObjAddr: 0x8234, symBinAddr: 0x100009AA4, symSize: 0x54 }
  - { offsetInCU: 0x15A89, offset: 0x15A89, size: 0x8, addend: 0x0, symName: __ZNKSt3__112basic_stringIcNS_11char_traitsIcEENS_9allocatorIcEEE9__is_longB8ue170006Ev, symObjAddr: 0x8288, symBinAddr: 0x100009AF8, symSize: 0x74 }
  - { offsetInCU: 0x15AAF, offset: 0x15AAF, size: 0x8, addend: 0x0, symName: __ZNKSt3__112basic_stringIcNS_11char_traitsIcEENS_9allocatorIcEEE18__get_long_pointerB8ue170006Ev, symObjAddr: 0x82FC, symBinAddr: 0x100009B6C, symSize: 0x28 }
  - { offsetInCU: 0x15AD5, offset: 0x15AD5, size: 0x8, addend: 0x0, symName: __ZNKSt3__112basic_stringIcNS_11char_traitsIcEENS_9allocatorIcEEE19__get_short_pointerB8ue170006Ev, symObjAddr: 0x8324, symBinAddr: 0x100009B94, symSize: 0x28 }
  - { offsetInCU: 0x15AFB, offset: 0x15AFB, size: 0x8, addend: 0x0, symName: __ZNKSt3__117__compressed_pairINS_12basic_stringIcNS_11char_traitsIcEENS_9allocatorIcEEE5__repES5_E5firstB8ue170006Ev, symObjAddr: 0x834C, symBinAddr: 0x100009BBC, symSize: 0x24 }
  - { offsetInCU: 0x15B21, offset: 0x15B21, size: 0x8, addend: 0x0, symName: __ZNKSt3__122__compressed_pair_elemINS_12basic_stringIcNS_11char_traitsIcEENS_9allocatorIcEEE5__repELi0ELb0EE5__getB8ue170006Ev, symObjAddr: 0x8370, symBinAddr: 0x100009BE0, symSize: 0x14 }
  - { offsetInCU: 0x15B47, offset: 0x15B47, size: 0x8, addend: 0x0, symName: __ZNSt3__114pointer_traitsIPKcE10pointer_toB8ue170006ERS1_, symObjAddr: 0x8384, symBinAddr: 0x100009BF4, symSize: 0x14 }
  - { offsetInCU: 0x15B6A, offset: 0x15B6A, size: 0x8, addend: 0x0, symName: __ZNSt3__119ostreambuf_iteratorIcNS_11char_traitsIcEEEC2B8ue170006ERNS_13basic_ostreamIcS2_EE, symObjAddr: 0x8398, symBinAddr: 0x100009C08, symSize: 0x68 }
  - { offsetInCU: 0x15BA2, offset: 0x15BA2, size: 0x8, addend: 0x0, symName: __ZNKSt3__19basic_iosIcNS_11char_traitsIcEEE5rdbufB8ue170006Ev, symObjAddr: 0x8400, symBinAddr: 0x100009C70, symSize: 0x24 }
  - { offsetInCU: 0x15BCA, offset: 0x15BCA, size: 0x8, addend: 0x0, symName: __ZNKSt3__18ios_base5rdbufB8ue170006Ev, symObjAddr: 0x8424, symBinAddr: 0x100009C94, symSize: 0x18 }
  - { offsetInCU: 0x15BF0, offset: 0x15BF0, size: 0x8, addend: 0x0, symName: __ZNSt3__111char_traitsIcE11eq_int_typeB8ue170006Eii, symObjAddr: 0x843C, symBinAddr: 0x100009CAC, symSize: 0x28 }
  - { offsetInCU: 0x15C23, offset: 0x15C23, size: 0x8, addend: 0x0, symName: __ZNSt3__111char_traitsIcE3eofB8ue170006Ev, symObjAddr: 0x8464, symBinAddr: 0x100009CD4, symSize: 0x8 }
  - { offsetInCU: 0x15C37, offset: 0x15C37, size: 0x8, addend: 0x0, symName: __ZNSt3__18ios_base8setstateB8ue170006Ej, symObjAddr: 0x846C, symBinAddr: 0x100009CDC, symSize: 0x34 }
  - { offsetInCU: 0x15C6E, offset: 0x15C6E, size: 0x8, addend: 0x0, symName: __ZNSt3__112basic_stringIcNS_11char_traitsIcEENS_9allocatorIcEEEC2B8ue170006ILi0EEEPKc, symObjAddr: 0x84C4, symBinAddr: 0x100009D34, symSize: 0x58 }
  - { offsetInCU: 0x15CAD, offset: 0x15CAD, size: 0x8, addend: 0x0, symName: __ZNKSt3__112basic_stringIcNS_11char_traitsIcEENS_9allocatorIcEEE4sizeB8ue170006Ev, symObjAddr: 0x851C, symBinAddr: 0x100009D8C, symSize: 0x54 }
  - { offsetInCU: 0x15CDD, offset: 0x15CDD, size: 0x8, addend: 0x0, symName: __ZNSt3__116allocator_traitsINS_9allocatorIcEEE37select_on_container_copy_constructionB8ue170006IS2_vvEES2_RKS2_, symObjAddr: 0x8570, symBinAddr: 0x100009DE0, symSize: 0x10 }
  - { offsetInCU: 0x15D0C, offset: 0x15D0C, size: 0x8, addend: 0x0, symName: __ZNKSt3__112basic_stringIcNS_11char_traitsIcEENS_9allocatorIcEEE13get_allocatorB8ue170006Ev, symObjAddr: 0x8580, symBinAddr: 0x100009DF0, symSize: 0x24 }
  - { offsetInCU: 0x15D32, offset: 0x15D32, size: 0x8, addend: 0x0, symName: __ZNSt3__112basic_stringIcNS_11char_traitsIcEENS_9allocatorIcEEEC1B8ue170006ENS_24__uninitialized_size_tagEmRKS4_, symObjAddr: 0x85A4, symBinAddr: 0x100009E14, symSize: 0x3C }
  - { offsetInCU: 0x15D85, offset: 0x15D85, size: 0x8, addend: 0x0, symName: __ZNSt3__112basic_stringIcNS_11char_traitsIcEENS_9allocatorIcEEE13__get_pointerB8ue170006Ev, symObjAddr: 0x85F4, symBinAddr: 0x100009E64, symSize: 0x54 }
  - { offsetInCU: 0x15DAB, offset: 0x15DAB, size: 0x8, addend: 0x0, symName: __ZNSt3__111char_traitsIcE4copyB8ue170006EPcPKcm, symObjAddr: 0x8648, symBinAddr: 0x100009EB8, symSize: 0x64 }
  - { offsetInCU: 0x15DEA, offset: 0x15DEA, size: 0x8, addend: 0x0, symName: __ZNSt3__111char_traitsIcE6assignB8ue170006EPcmc, symObjAddr: 0x86AC, symBinAddr: 0x100009F1C, symSize: 0x58 }
  - { offsetInCU: 0x15E29, offset: 0x15E29, size: 0x8, addend: 0x0, symName: __ZNKSt3__112basic_stringIcNS_11char_traitsIcEENS_9allocatorIcEEE15__get_long_sizeB8ue170006Ev, symObjAddr: 0x8704, symBinAddr: 0x100009F74, symSize: 0x28 }
  - { offsetInCU: 0x15E4F, offset: 0x15E4F, size: 0x8, addend: 0x0, symName: __ZNKSt3__112basic_stringIcNS_11char_traitsIcEENS_9allocatorIcEEE16__get_short_sizeB8ue170006Ev, symObjAddr: 0x872C, symBinAddr: 0x100009F9C, symSize: 0x34 }
  - { offsetInCU: 0x15E75, offset: 0x15E75, size: 0x8, addend: 0x0, symName: __ZNKSt3__112basic_stringIcNS_11char_traitsIcEENS_9allocatorIcEEE7__allocB8ue170006Ev, symObjAddr: 0x8760, symBinAddr: 0x100009FD0, symSize: 0x24 }
  - { offsetInCU: 0x15E9B, offset: 0x15E9B, size: 0x8, addend: 0x0, symName: __ZNKSt3__117__compressed_pairINS_12basic_stringIcNS_11char_traitsIcEENS_9allocatorIcEEE5__repES5_E6secondB8ue170006Ev, symObjAddr: 0x8784, symBinAddr: 0x100009FF4, symSize: 0x24 }
  - { offsetInCU: 0x15EC1, offset: 0x15EC1, size: 0x8, addend: 0x0, symName: __ZNKSt3__122__compressed_pair_elemINS_9allocatorIcEELi1ELb1EE5__getB8ue170006Ev, symObjAddr: 0x87A8, symBinAddr: 0x10000A018, symSize: 0x14 }
  - { offsetInCU: 0x15EE7, offset: 0x15EE7, size: 0x8, addend: 0x0, symName: __ZNSt3__112basic_stringIcNS_11char_traitsIcEENS_9allocatorIcEEEC2B8ue170006ENS_24__uninitialized_size_tagEmRKS4_, symObjAddr: 0x87BC, symBinAddr: 0x10000A02C, symSize: 0x110 }
  - { offsetInCU: 0x15F67, offset: 0x15F67, size: 0x8, addend: 0x0, symName: __ZNSt3__117__compressed_pairINS_12basic_stringIcNS_11char_traitsIcEENS_9allocatorIcEEE5__repES5_EC1B8ue170006INS_18__default_init_tagERKS5_EEOT_OT0_, symObjAddr: 0x88CC, symBinAddr: 0x10000A13C, symSize: 0x3C }
  - { offsetInCU: 0x15FBF, offset: 0x15FBF, size: 0x8, addend: 0x0, symName: __ZNKSt3__112basic_stringIcNS_11char_traitsIcEENS_9allocatorIcEEE8max_sizeB8ue170006Ev, symObjAddr: 0x8908, symBinAddr: 0x10000A178, symSize: 0xAC }
  - { offsetInCU: 0x16012, offset: 0x16012, size: 0x8, addend: 0x0, symName: __ZNKSt3__112basic_stringIcNS_11char_traitsIcEENS_9allocatorIcEEE20__throw_length_errorB8ue170006Ev, symObjAddr: 0x89B4, symBinAddr: 0x10000A224, symSize: 0x1C }
  - { offsetInCU: 0x16038, offset: 0x16038, size: 0x8, addend: 0x0, symName: __ZNSt3__112basic_stringIcNS_11char_traitsIcEENS_9allocatorIcEEE13__fits_in_ssoB8ue170006Em, symObjAddr: 0x89D0, symBinAddr: 0x10000A240, symSize: 0x4C }
  - { offsetInCU: 0x1605C, offset: 0x1605C, size: 0x8, addend: 0x0, symName: __ZNSt3__117__compressed_pairINS_12basic_stringIcNS_11char_traitsIcEENS_9allocatorIcEEE5__repES5_E5firstB8ue170006Ev, symObjAddr: 0x8A1C, symBinAddr: 0x10000A28C, symSize: 0x24 }
  - { offsetInCU: 0x16082, offset: 0x16082, size: 0x8, addend: 0x0, symName: __ZNSt3__112basic_stringIcNS_11char_traitsIcEENS_9allocatorIcEEE16__set_short_sizeB8ue170006Em, symObjAddr: 0x8A40, symBinAddr: 0x10000A2B0, symSize: 0x78 }
  - { offsetInCU: 0x160B7, offset: 0x160B7, size: 0x8, addend: 0x0, symName: __ZNSt3__112basic_stringIcNS_11char_traitsIcEENS_9allocatorIcEEE11__recommendB8ue170006Em, symObjAddr: 0x8AB8, symBinAddr: 0x10000A328, symSize: 0x9C }
  - { offsetInCU: 0x160EA, offset: 0x160EA, size: 0x8, addend: 0x0, symName: __ZNSt3__116allocator_traitsINS_9allocatorIcEEE8allocateB8ue170006ERS2_m, symObjAddr: 0x8B54, symBinAddr: 0x10000A3C4, symSize: 0x2C }
  - { offsetInCU: 0x1611D, offset: 0x1611D, size: 0x8, addend: 0x0, symName: __ZNSt3__112basic_stringIcNS_11char_traitsIcEENS_9allocatorIcEEE7__allocB8ue170006Ev, symObjAddr: 0x8B80, symBinAddr: 0x10000A3F0, symSize: 0x24 }
  - { offsetInCU: 0x16143, offset: 0x16143, size: 0x8, addend: 0x0, symName: __ZNSt3__112basic_stringIcNS_11char_traitsIcEENS_9allocatorIcEEE16__begin_lifetimeB8ue170006EPcm, symObjAddr: 0x8BA4, symBinAddr: 0x10000A414, symSize: 0x14 }
  - { offsetInCU: 0x16176, offset: 0x16176, size: 0x8, addend: 0x0, symName: __ZNSt3__112basic_stringIcNS_11char_traitsIcEENS_9allocatorIcEEE14__set_long_capB8ue170006Em, symObjAddr: 0x8BB8, symBinAddr: 0x10000A428, symSize: 0x70 }
  - { offsetInCU: 0x161AB, offset: 0x161AB, size: 0x8, addend: 0x0, symName: __ZNSt3__112basic_stringIcNS_11char_traitsIcEENS_9allocatorIcEEE18__set_long_pointerB8ue170006EPc, symObjAddr: 0x8C28, symBinAddr: 0x10000A498, symSize: 0x38 }
  - { offsetInCU: 0x161E0, offset: 0x161E0, size: 0x8, addend: 0x0, symName: __ZNSt3__112basic_stringIcNS_11char_traitsIcEENS_9allocatorIcEEE15__set_long_sizeB8ue170006Em, symObjAddr: 0x8C60, symBinAddr: 0x10000A4D0, symSize: 0x38 }
  - { offsetInCU: 0x16215, offset: 0x16215, size: 0x8, addend: 0x0, symName: __ZNSt3__117__compressed_pairINS_12basic_stringIcNS_11char_traitsIcEENS_9allocatorIcEEE5__repES5_EC2B8ue170006INS_18__default_init_tagERKS5_EEOT_OT0_, symObjAddr: 0x8C98, symBinAddr: 0x10000A508, symSize: 0x40 }
  - { offsetInCU: 0x1626D, offset: 0x1626D, size: 0x8, addend: 0x0, symName: __ZNSt3__122__compressed_pair_elemINS_9allocatorIcEELi1ELb1EEC2B8ue170006IRKS2_vEEOT_, symObjAddr: 0x8CD8, symBinAddr: 0x10000A548, symSize: 0x18 }
  - { offsetInCU: 0x162AF, offset: 0x162AF, size: 0x8, addend: 0x0, symName: __ZNSt3__116allocator_traitsINS_9allocatorIcEEE8max_sizeB8ue170006IS2_vEEmRKS2_, symObjAddr: 0x8CF0, symBinAddr: 0x10000A560, symSize: 0x24 }
  - { offsetInCU: 0x162DD, offset: 0x162DD, size: 0x8, addend: 0x0, symName: __ZNSt3__114numeric_limitsImE3maxB8ue170006Ev, symObjAddr: 0x8D14, symBinAddr: 0x10000A584, symSize: 0x14 }
  - { offsetInCU: 0x162F1, offset: 0x162F1, size: 0x8, addend: 0x0, symName: __ZNKSt3__19allocatorIcE8max_sizeB8ue170006Ev, symObjAddr: 0x8D28, symBinAddr: 0x10000A598, symSize: 0x14 }
  - { offsetInCU: 0x16317, offset: 0x16317, size: 0x8, addend: 0x0, symName: __ZNSt3__123__libcpp_numeric_limitsImLb1EE3maxB8ue170006Ev, symObjAddr: 0x8D3C, symBinAddr: 0x10000A5AC, symSize: 0x8 }
  - { offsetInCU: 0x1632B, offset: 0x1632B, size: 0x8, addend: 0x0, symName: __ZNSt3__122__compressed_pair_elemINS_12basic_stringIcNS_11char_traitsIcEENS_9allocatorIcEEE5__repELi0ELb0EE5__getB8ue170006Ev, symObjAddr: 0x8D44, symBinAddr: 0x10000A5B4, symSize: 0x14 }
  - { offsetInCU: 0x16351, offset: 0x16351, size: 0x8, addend: 0x0, symName: __ZNSt3__112basic_stringIcNS_11char_traitsIcEENS_9allocatorIcEEE10__align_itB8ue170006ILm16EEEmm, symObjAddr: 0x8D58, symBinAddr: 0x10000A5C8, symSize: 0x1C }
  - { offsetInCU: 0x1637F, offset: 0x1637F, size: 0x8, addend: 0x0, symName: __ZNSt3__19allocatorIcE8allocateB8ue170006Em, symObjAddr: 0x8D74, symBinAddr: 0x10000A5E4, symSize: 0x84 }
  - { offsetInCU: 0x163B3, offset: 0x163B3, size: 0x8, addend: 0x0, symName: __ZNSt3__117__compressed_pairINS_12basic_stringIcNS_11char_traitsIcEENS_9allocatorIcEEE5__repES5_E6secondB8ue170006Ev, symObjAddr: 0x8DF8, symBinAddr: 0x10000A668, symSize: 0x24 }
  - { offsetInCU: 0x163D9, offset: 0x163D9, size: 0x8, addend: 0x0, symName: __ZNSt3__122__compressed_pair_elemINS_9allocatorIcEELi1ELb1EE5__getB8ue170006Ev, symObjAddr: 0x8E1C, symBinAddr: 0x10000A68C, symSize: 0x14 }
  - { offsetInCU: 0x163FF, offset: 0x163FF, size: 0x8, addend: 0x0, symName: __ZNSt3__112basic_stringIcNS_11char_traitsIcEENS_9allocatorIcEEE18__get_long_pointerB8ue170006Ev, symObjAddr: 0x8E30, symBinAddr: 0x10000A6A0, symSize: 0x28 }
  - { offsetInCU: 0x16425, offset: 0x16425, size: 0x8, addend: 0x0, symName: __ZNSt3__112basic_stringIcNS_11char_traitsIcEENS_9allocatorIcEEE19__get_short_pointerB8ue170006Ev, symObjAddr: 0x8E58, symBinAddr: 0x10000A6C8, symSize: 0x28 }
  - { offsetInCU: 0x1644B, offset: 0x1644B, size: 0x8, addend: 0x0, symName: __ZNSt3__114pointer_traitsIPcE10pointer_toB8ue170006ERc, symObjAddr: 0x8E80, symBinAddr: 0x10000A6F0, symSize: 0x14 }
  - { offsetInCU: 0x164A5, offset: 0x164A5, size: 0x8, addend: 0x0, symName: __ZNKSt3__114__copy_trivialclB8ue170006IKccLi0EEENS_4pairIPT_PT0_EES5_S5_S7_, symObjAddr: 0x90B4, symBinAddr: 0x10000A924, symSize: 0x48 }
  - { offsetInCU: 0x16526, offset: 0x16526, size: 0x8, addend: 0x0, symName: __ZNSt3__14pairIPKcS2_EC1B8ue170006ERKS2_S5_, symObjAddr: 0x9230, symBinAddr: 0x10000AAA0, symSize: 0x3C }
  - { offsetInCU: 0x1656C, offset: 0x1656C, size: 0x8, addend: 0x0, symName: __ZNSt3__14pairIPKcS2_EC2B8ue170006ERKS2_S5_, symObjAddr: 0x926C, symBinAddr: 0x10000AADC, symSize: 0x34 }
  - { offsetInCU: 0x165B2, offset: 0x165B2, size: 0x8, addend: 0x0, symName: __ZNSt3__118__unwrap_iter_implIPKcLb1EE8__unwrapB8ue170006ES2_, symObjAddr: 0x92A0, symBinAddr: 0x10000AB10, symSize: 0x24 }
  - { offsetInCU: 0x165D5, offset: 0x165D5, size: 0x8, addend: 0x0, symName: __ZNSt3__14pairIPKcPcEC1B8ue170006ERKS2_RKS3_, symObjAddr: 0x9414, symBinAddr: 0x10000AC84, symSize: 0x3C }
  - { offsetInCU: 0x1661B, offset: 0x1661B, size: 0x8, addend: 0x0, symName: __ZNSt3__14pairIPKcPcEC2B8ue170006ERKS2_RKS3_, symObjAddr: 0x9450, symBinAddr: 0x10000ACC0, symSize: 0x34 }
  - { offsetInCU: 0x16661, offset: 0x16661, size: 0x8, addend: 0x0, symName: __ZNSt3__118__unwrap_iter_implIPcLb1EE8__unwrapB8ue170006ES1_, symObjAddr: 0x9484, symBinAddr: 0x10000ACF4, symSize: 0x24 }
  - { offsetInCU: 0x16684, offset: 0x16684, size: 0x8, addend: 0x0, symName: __ZNSt3__118__unwrap_iter_implIPKcLb1EE8__rewrapB8ue170006ES2_S2_, symObjAddr: 0x94F8, symBinAddr: 0x10000AD68, symSize: 0x48 }
  - { offsetInCU: 0x166B5, offset: 0x166B5, size: 0x8, addend: 0x0, symName: __ZNSt3__118__unwrap_iter_implIPcLb1EE8__rewrapB8ue170006ES1_S1_, symObjAddr: 0x9540, symBinAddr: 0x10000ADB0, symSize: 0x48 }
  - { offsetInCU: 0x166E6, offset: 0x166E6, size: 0x8, addend: 0x0, symName: __ZNSt3__19basic_iosIcNS_11char_traitsIcEEEC2B8ue170006Ev, symObjAddr: 0x9644, symBinAddr: 0x10000AEB4, symSize: 0x44 }
  - { offsetInCU: 0x16710, offset: 0x16710, size: 0x8, addend: 0x0, symName: __ZNSt3__113basic_istreamIcNS_11char_traitsIcEEEC2B8ue170006EPNS_15basic_streambufIcS2_EE, symObjAddr: 0x9688, symBinAddr: 0x10000AEF8, symSize: 0x64 }
  - { offsetInCU: 0x16755, offset: 0x16755, size: 0x8, addend: 0x0, symName: __ZNSt3__113basic_filebufIcNS_11char_traitsIcEEE4openERKNS_12basic_stringIcS2_NS_9allocatorIcEEEEj, symObjAddr: 0x96EC, symBinAddr: 0x10000AF5C, symSize: 0x44 }
  - { offsetInCU: 0x16799, offset: 0x16799, size: 0x8, addend: 0x0, symName: __ZNSt3__18ios_baseC2B8ue170006Ev, symObjAddr: 0x9730, symBinAddr: 0x10000AFA0, symSize: 0x24 }
  - { offsetInCU: 0x167C3, offset: 0x167C3, size: 0x8, addend: 0x0, symName: __ZNSt3__19basic_iosIcNS_11char_traitsIcEEE4initB8ue170006EPNS_15basic_streambufIcS2_EE, symObjAddr: 0x9754, symBinAddr: 0x10000AFC4, symSize: 0x44 }
  - { offsetInCU: 0x167FA, offset: 0x167FA, size: 0x8, addend: 0x0, symName: __ZNKSt3__112basic_stringIcNS_11char_traitsIcEENS_9allocatorIcEEE5c_strB8ue170006Ev, symObjAddr: 0x9798, symBinAddr: 0x10000B008, symSize: 0x24 }
  - { offsetInCU: 0x16820, offset: 0x16820, size: 0x8, addend: 0x0, symName: __ZNKSt3__113basic_filebufIcNS_11char_traitsIcEEE7is_openEv, symObjAddr: 0x97BC, symBinAddr: 0x10000B02C, symSize: 0x24 }
...
