---
triple:          'arm64-apple-darwin'
binary-path:     '/Users/jan/Documents/code/AlgorithmEngineering/output/chatGPT'
relocations:
  - { offsetInCU: 0x2FA9, offset: 0x2FA9, size: 0x8, addend: 0x0, symName: __ZNSt3__16copy_nB8ue170006IPKcmPcEENS_9enable_ifIXsr37__has_random_access_iterator_categoryIT_EE5valueET1_E4typeES5_T0_S6_, symObjAddr: 0x1EFC, symBinAddr: 0x100005938, symSize: 0x44 }
  - { offsetInCU: 0x6F01, offset: 0x6F01, size: 0x8, addend: 0x0, symName: __ZNSt3__124__put_character_sequenceB8ue170006IcNS_11char_traitsIcEEEERNS_13basic_ostreamIT_T0_EES7_PKS4_m, symObjAddr: 0x6F10, symBinAddr: 0x10000A94C, symSize: 0x1F4 }
  - { offsetInCU: 0x8C53, offset: 0x8C53, size: 0x8, addend: 0x0, symName: __ZNSt3__1plB8ue170006IcNS_11char_traitsIcEENS_9allocatorIcEEEENS_12basic_stringIT_T0_T1_EERKS9_PKS6_, symObjAddr: 0x298, symBinAddr: 0x100003CD4, symSize: 0x11C }
  - { offsetInCU: 0x9A2E, offset: 0x9A2E, size: 0x8, addend: 0x0, symName: __ZNSt3__1neB8ue170006IPK4EdgeEEbRKNS_11__wrap_iterIT_EES8_, symObjAddr: 0xA0C, symBinAddr: 0x100004448, symSize: 0x34 }
  - { offsetInCU: 0x9A71, offset: 0x9A71, size: 0x8, addend: 0x0, symName: __ZNSt3__1neB8ue170006IP4EdgeEEbRKNS_11__wrap_iterIT_EES7_, symObjAddr: 0xCA4, symBinAddr: 0x1000046E0, symSize: 0x34 }
  - { offsetInCU: 0x9AB4, offset: 0x9AB4, size: 0x8, addend: 0x0, symName: __ZNSt3__14endlB8ue170006IcNS_11char_traitsIcEEEERNS_13basic_ostreamIT_T0_EES7_, symObjAddr: 0xE44, symBinAddr: 0x100004880, symSize: 0x58 }
  - { offsetInCU: 0x9AF4, offset: 0x9AF4, size: 0x8, addend: 0x0, symName: __ZNSt3__1lsB8ue170006INS_11char_traitsIcEEEERNS_13basic_ostreamIcT_EES6_PKc, symObjAddr: 0xEC4, symBinAddr: 0x100004900, symSize: 0x48 }
  - { offsetInCU: 0x9B3A, offset: 0x9B3A, size: 0x8, addend: 0x0, symName: __ZNSt3__118__constexpr_strlenB8ue170006EPKc, symObjAddr: 0x131C, symBinAddr: 0x100004D58, symSize: 0x24 }
  - { offsetInCU: 0x9B66, offset: 0x9B66, size: 0x8, addend: 0x0, symName: __ZNSt3__112__to_addressB8ue170006IcEEPT_S2_, symObjAddr: 0x1404, symBinAddr: 0x100004E40, symSize: 0x14 }
  - { offsetInCU: 0x9B9B, offset: 0x9B9B, size: 0x8, addend: 0x0, symName: __ZNSt3__130__libcpp_is_constant_evaluatedB8ue170006Ev, symObjAddr: 0x1620, symBinAddr: 0x10000505C, symSize: 0xC }
  - { offsetInCU: 0x9DBA, offset: 0x9DBA, size: 0x8, addend: 0x0, symName: __ZNSt3__120__throw_length_errorB8ue170006EPKc, symObjAddr: 0x1C48, symBinAddr: 0x100005684, symSize: 0x64 }
  - { offsetInCU: 0x9DE4, offset: 0x9DE4, size: 0x8, addend: 0x0, symName: __ZNSt3__117__libcpp_allocateB8ue170006Emm, symObjAddr: 0x1E14, symBinAddr: 0x100005850, symSize: 0x28 }
  - { offsetInCU: 0x9E21, offset: 0x9E21, size: 0x8, addend: 0x0, symName: __ZNSt3__121__libcpp_operator_newB8ue170006IJmEEEPvDpT_, symObjAddr: 0x1E3C, symBinAddr: 0x100005878, symSize: 0x24 }
  - { offsetInCU: 0x9E8D, offset: 0x9E8D, size: 0x8, addend: 0x0, symName: __ZNSt3__14copyB8ue170006IPKcPcEET0_T_S5_S4_, symObjAddr: 0x1F40, symBinAddr: 0x10000597C, symSize: 0x40 }
  - { offsetInCU: 0x9EE7, offset: 0x9EE7, size: 0x8, addend: 0x0, symName: __ZNSt3__16__copyB8ue170006INS_17_ClassicAlgPolicyEPKcS3_PcEENS_4pairIT0_T2_EES6_T1_S7_, symObjAddr: 0x1F80, symBinAddr: 0x1000059BC, symSize: 0x44 }
  - { offsetInCU: 0x9F53, offset: 0x9F53, size: 0x8, addend: 0x0, symName: __ZNSt3__123__dispatch_copy_or_moveB8ue170006INS_17_ClassicAlgPolicyENS_11__copy_loopIS1_EENS_14__copy_trivialEPKcS6_PcEENS_4pairIT2_T4_EES9_T3_SA_, symObjAddr: 0x1FC4, symBinAddr: 0x100005A00, symSize: 0x44 }
  - { offsetInCU: 0x9FD1, offset: 0x9FD1, size: 0x8, addend: 0x0, symName: __ZNSt3__121__unwrap_and_dispatchB8ue170006INS_10__overloadINS_11__copy_loopINS_17_ClassicAlgPolicyEEENS_14__copy_trivialEEEPKcS8_PcLi0EEENS_4pairIT0_T2_EESB_T1_SC_, symObjAddr: 0x2008, symBinAddr: 0x100005A44, symSize: 0xB4 }
  - { offsetInCU: 0xA05F, offset: 0xA05F, size: 0x8, addend: 0x0, symName: __ZNSt3__114__unwrap_rangeB8ue170006IPKcS2_EENS_4pairIT0_S4_EET_S6_, symObjAddr: 0x20BC, symBinAddr: 0x100005AF8, symSize: 0x60 }
  - { offsetInCU: 0xA19E, offset: 0xA19E, size: 0x8, addend: 0x0, symName: __ZNSt3__113__unwrap_iterB8ue170006IPcNS_18__unwrap_iter_implIS1_Lb1EEELi0EEEDTclsrT0_8__unwrapclsr3stdE7declvalIT_EEEES5_, symObjAddr: 0x2164, symBinAddr: 0x100005BA0, symSize: 0x24 }
  - { offsetInCU: 0xA1E2, offset: 0xA1E2, size: 0x8, addend: 0x0, symName: __ZNSt3__19make_pairB8ue170006IPKcPcEENS_4pairINS_18__unwrap_ref_decayIT_E4typeENS5_IT0_E4typeEEEOS6_OS9_, symObjAddr: 0x2188, symBinAddr: 0x100005BC4, symSize: 0x38 }
  - { offsetInCU: 0xA231, offset: 0xA231, size: 0x8, addend: 0x0, symName: __ZNSt3__114__rewrap_rangeB8ue170006IPKcS2_EET_S3_T0_, symObjAddr: 0x21C0, symBinAddr: 0x100005BFC, symSize: 0x2C }
  - { offsetInCU: 0xA27D, offset: 0xA27D, size: 0x8, addend: 0x0, symName: __ZNSt3__113__rewrap_iterB8ue170006IPcS1_NS_18__unwrap_iter_implIS1_Lb1EEEEET_S4_T0_, symObjAddr: 0x21EC, symBinAddr: 0x100005C28, symSize: 0x50 }
  - { offsetInCU: 0xA2D2, offset: 0xA2D2, size: 0x8, addend: 0x0, symName: __ZNSt3__19make_pairB8ue170006IPKcS2_EENS_4pairINS_18__unwrap_ref_decayIT_E4typeENS4_IT0_E4typeEEEOS5_OS8_, symObjAddr: 0x223C, symBinAddr: 0x100005C78, symSize: 0x38 }
  - { offsetInCU: 0xA321, offset: 0xA321, size: 0x8, addend: 0x0, symName: __ZNSt3__113__unwrap_iterB8ue170006IPKcNS_18__unwrap_iter_implIS2_Lb1EEELi0EEEDTclsrT0_8__unwrapclsr3stdE7declvalIT_EEEES6_, symObjAddr: 0x2274, symBinAddr: 0x100005CB0, symSize: 0x24 }
  - { offsetInCU: 0xA465, offset: 0xA465, size: 0x8, addend: 0x0, symName: __ZNSt3__112__to_addressB8ue170006IKcEEPT_S3_, symObjAddr: 0x232C, symBinAddr: 0x100005D68, symSize: 0x14 }
  - { offsetInCU: 0xA49A, offset: 0xA49A, size: 0x8, addend: 0x0, symName: __ZNSt3__119__copy_trivial_implB8ue170006IKccEENS_4pairIPT_PT0_EES4_S4_S6_, symObjAddr: 0x2340, symBinAddr: 0x100005D7C, symSize: 0x78 }
  - { offsetInCU: 0xA502, offset: 0xA502, size: 0x8, addend: 0x0, symName: __ZNSt3__119__constexpr_memmoveB8ue170006IcKcLi0EEEPT_S3_PT0_NS_15__element_countE, symObjAddr: 0x23B8, symBinAddr: 0x100005DF4, symSize: 0xA0 }
  - { offsetInCU: 0xA570, offset: 0xA570, size: 0x8, addend: 0x0, symName: __ZNSt3__19make_pairB8ue170006IRPKcPcEENS_4pairINS_18__unwrap_ref_decayIT_E4typeENS6_IT0_E4typeEEEOS7_OSA_, symObjAddr: 0x2458, symBinAddr: 0x100005E94, symSize: 0x38 }
  - { offsetInCU: 0xA612, offset: 0xA612, size: 0x8, addend: 0x0, symName: __ZNSt3__113__rewrap_iterB8ue170006IPKcS2_NS_18__unwrap_iter_implIS2_Lb1EEEEET_S5_T0_, symObjAddr: 0x2524, symBinAddr: 0x100005F60, symSize: 0x50 }
  - { offsetInCU: 0xA69A, offset: 0xA69A, size: 0x8, addend: 0x0, symName: __ZNSt3__16fill_nB8ue170006IPcmcEET_S2_T0_RKT1_, symObjAddr: 0x26BC, symBinAddr: 0x1000060F8, symSize: 0x44 }
  - { offsetInCU: 0xA6FD, offset: 0xA6FD, size: 0x8, addend: 0x0, symName: __ZNSt3__18__fill_nB8ue170006IPcmcEET_S2_T0_RKT1_, symObjAddr: 0x2700, symBinAddr: 0x10000613C, symSize: 0x64 }
  - { offsetInCU: 0xA760, offset: 0xA760, size: 0x8, addend: 0x0, symName: __ZNSt3__121__convert_to_integralB8ue170006Em, symObjAddr: 0x2764, symBinAddr: 0x1000061A0, symSize: 0x14 }
  - { offsetInCU: 0xA78C, offset: 0xA78C, size: 0x8, addend: 0x0, symName: __ZNSt3__122__make_exception_guardB8ue170006INS_6vectorINS1_I4EdgeNS_9allocatorIS2_EEEENS3_IS5_EEE16__destroy_vectorEEENS_28__exception_guard_exceptionsIT_EESA_, symObjAddr: 0x2A70, symBinAddr: 0x1000064AC, symSize: 0x40 }
  - { offsetInCU: 0xA7C1, offset: 0xA7C1, size: 0x8, addend: 0x0, symName: __ZNSt3__119__allocate_at_leastB8ue170006INS_9allocatorINS_6vectorI4EdgeNS1_IS3_EEEEEEEENS_19__allocation_resultINS_16allocator_traitsIT_E7pointerEEERS9_m, symObjAddr: 0x2E80, symBinAddr: 0x1000068BC, symSize: 0x40 }
  - { offsetInCU: 0xA804, offset: 0xA804, size: 0x8, addend: 0x0, symName: __ZNSt3__13minB8ue170006ImEERKT_S3_S3_, symObjAddr: 0x2FD8, symBinAddr: 0x100006A14, symSize: 0x2C }
  - { offsetInCU: 0xAA48, offset: 0xAA48, size: 0x8, addend: 0x0, symName: __ZNSt3__13minB8ue170006ImNS_6__lessIvvEEEERKT_S5_S5_T0_, symObjAddr: 0x3064, symBinAddr: 0x100006AA0, symSize: 0x54 }
  - { offsetInCU: 0xAAE7, offset: 0xAAE7, size: 0x8, addend: 0x0, symName: __ZNSt3__112__to_addressB8ue170006INS_6vectorI4EdgeNS_9allocatorIS2_EEEEEEPT_S7_, symObjAddr: 0x32C8, symBinAddr: 0x100006D04, symSize: 0x14 }
  - { offsetInCU: 0xAB1C, offset: 0xAB1C, size: 0x8, addend: 0x0, symName: __ZNSt3__112__to_addressB8ue170006I4EdgeEEPT_S3_, symObjAddr: 0x3C68, symBinAddr: 0x1000076A4, symSize: 0x14 }
  - { offsetInCU: 0xAB51, offset: 0xAB51, size: 0x8, addend: 0x0, symName: __ZNSt3__119__libcpp_deallocateB8ue170006EPvmm, symObjAddr: 0x3D70, symBinAddr: 0x1000077AC, symSize: 0x30 }
  - { offsetInCU: 0xAB99, offset: 0xAB99, size: 0x8, addend: 0x0, symName: __ZNSt3__127__do_deallocate_handle_sizeB8ue170006IJEEEvPvmDpT_, symObjAddr: 0x3DA0, symBinAddr: 0x1000077DC, symSize: 0x28 }
  - { offsetInCU: 0xABD7, offset: 0xABD7, size: 0x8, addend: 0x0, symName: __ZNSt3__124__libcpp_operator_deleteB8ue170006IJPvEEEvDpT_, symObjAddr: 0x3DC8, symBinAddr: 0x100007804, symSize: 0x24 }
  - { offsetInCU: 0xAC0C, offset: 0xAC0C, size: 0x8, addend: 0x0, symName: __ZNSt3__13maxB8ue170006ImEERKT_S3_S3_, symObjAddr: 0x44F8, symBinAddr: 0x100007F34, symSize: 0x2C }
  - { offsetInCU: 0xAC4F, offset: 0xAC4F, size: 0x8, addend: 0x0, symName: __ZNSt3__13maxB8ue170006ImNS_6__lessIvvEEEERKT_S5_S5_T0_, symObjAddr: 0x45BC, symBinAddr: 0x100007FF8, symSize: 0x54 }
  - { offsetInCU: 0xACA9, offset: 0xACA9, size: 0x8, addend: 0x0, symName: __ZNSt3__119__allocate_at_leastB8ue170006INS_9allocatorI4EdgeEEEENS_19__allocation_resultINS_16allocator_traitsIT_E7pointerEEERS6_m, symObjAddr: 0x4720, symBinAddr: 0x10000815C, symSize: 0x40 }
  - { offsetInCU: 0xACEC, offset: 0xACEC, size: 0x8, addend: 0x0, symName: __ZNSt3__142__uninitialized_allocator_move_if_noexceptB8ue170006INS_9allocatorI4EdgeEENS_16reverse_iteratorIPS2_EES6_S2_vEET1_RT_T0_SA_S7_, symObjAddr: 0x4900, symBinAddr: 0x10000833C, symSize: 0xE8 }
  - { offsetInCU: 0xAD69, offset: 0xAD69, size: 0x8, addend: 0x0, symName: __ZNSt3__14swapB8ue170006IP4EdgeEEvRT_S4_, symObjAddr: 0x4A34, symBinAddr: 0x100008470, symSize: 0x3C }
  - { offsetInCU: 0xADBA, offset: 0xADBA, size: 0x8, addend: 0x0, symName: __ZNSt3__1neB8ue170006IP4EdgeS2_EEbRKNS_16reverse_iteratorIT_EERKNS3_IT0_EE, symObjAddr: 0x4B1C, symBinAddr: 0x100008558, symSize: 0x48 }
  - { offsetInCU: 0xAE2B, offset: 0xAE2B, size: 0x8, addend: 0x0, symName: __ZNSt3__114__construct_atB8ue170006I4EdgeJS1_EPS1_EEPT_S4_DpOT0_, symObjAddr: 0x4B64, symBinAddr: 0x1000085A0, symSize: 0x2C }
  - { offsetInCU: 0xAE9B, offset: 0xAE9B, size: 0x8, addend: 0x0, symName: __ZNSt3__112__to_addressB8ue170006INS_16reverse_iteratorIP4EdgeEEvEEu7__decayIDTclsr19__to_address_helperIT_EE6__callclsr3stdE7declvalIRKS5_EEEEES7_, symObjAddr: 0x4B90, symBinAddr: 0x1000085CC, symSize: 0x24 }
  - { offsetInCU: 0xAED1, offset: 0xAED1, size: 0x8, addend: 0x0, symName: __ZNSt3__14moveB8ue170006INS_16reverse_iteratorIP4EdgeEES4_EET0_T_S6_S5_, symObjAddr: 0x4BFC, symBinAddr: 0x100008638, symSize: 0x78 }
  - { offsetInCU: 0xAF54, offset: 0xAF54, size: 0x8, addend: 0x0, symName: __ZNSt3__16__moveB8ue170006INS_17_ClassicAlgPolicyENS_16reverse_iteratorIP4EdgeEES5_S5_EENS_4pairIT0_T2_EES7_T1_S8_, symObjAddr: 0x4CE4, symBinAddr: 0x100008720, symSize: 0x64 }
  - { offsetInCU: 0xAFC0, offset: 0xAFC0, size: 0x8, addend: 0x0, symName: __ZNSt3__123__dispatch_copy_or_moveB8ue170006INS_17_ClassicAlgPolicyENS_11__move_loopIS1_EENS_14__move_trivialENS_16reverse_iteratorIP4EdgeEES8_S8_EENS_4pairIT2_T4_EESA_T3_SB_, symObjAddr: 0x4D48, symBinAddr: 0x100008784, symSize: 0x64 }
  - { offsetInCU: 0xB03E, offset: 0xB03E, size: 0x8, addend: 0x0, symName: __ZNSt3__121__unwrap_and_dispatchB8ue170006INS_10__overloadINS_11__move_loopINS_17_ClassicAlgPolicyEEENS_14__move_trivialEEENS_16reverse_iteratorIP4EdgeEESA_SA_Li0EEENS_4pairIT0_T2_EESC_T1_SD_, symObjAddr: 0x4DAC, symBinAddr: 0x1000087E8, symSize: 0x12C }
  - { offsetInCU: 0xB0CE, offset: 0xB0CE, size: 0x8, addend: 0x0, symName: __ZNSt3__114__unwrap_rangeB8ue170006INS_16reverse_iteratorIP4EdgeEES4_EENS_4pairIT0_S6_EET_S8_, symObjAddr: 0x4ED8, symBinAddr: 0x100008914, symSize: 0x84 }
  - { offsetInCU: 0xB222, offset: 0xB222, size: 0x8, addend: 0x0, symName: __ZNSt3__113__unwrap_iterB8ue170006INS_16reverse_iteratorIP4EdgeEENS_18__unwrap_iter_implIS4_Lb0EEELi0EEEDTclsrT0_8__unwrapclsr3stdE7declvalIT_EEEES8_, symObjAddr: 0x4FFC, symBinAddr: 0x100008A38, symSize: 0x44 }
  - { offsetInCU: 0xB266, offset: 0xB266, size: 0x8, addend: 0x0, symName: __ZNSt3__19make_pairB8ue170006INS_16reverse_iteratorIP4EdgeEES4_EENS_4pairINS_18__unwrap_ref_decayIT_E4typeENS6_IT0_E4typeEEEOS7_OSA_, symObjAddr: 0x5040, symBinAddr: 0x100008A7C, symSize: 0x38 }
  - { offsetInCU: 0xB2B5, offset: 0xB2B5, size: 0x8, addend: 0x0, symName: __ZNSt3__114__rewrap_rangeB8ue170006INS_16reverse_iteratorIP4EdgeEES4_EET_S5_T0_, symObjAddr: 0x5078, symBinAddr: 0x100008AB4, symSize: 0x5C }
  - { offsetInCU: 0xB301, offset: 0xB301, size: 0x8, addend: 0x0, symName: __ZNSt3__113__rewrap_iterB8ue170006INS_16reverse_iteratorIP4EdgeEES4_NS_18__unwrap_iter_implIS4_Lb0EEEEET_S7_T0_, symObjAddr: 0x50D4, symBinAddr: 0x100008B10, symSize: 0x88 }
  - { offsetInCU: 0xB408, offset: 0xB408, size: 0x8, addend: 0x0, symName: __ZNSt3__122__make_exception_guardB8ue170006INS_6vectorIiNS_9allocatorIiEEE16__destroy_vectorEEENS_28__exception_guard_exceptionsIT_EES7_, symObjAddr: 0x557C, symBinAddr: 0x100008FB8, symSize: 0x40 }
  - { offsetInCU: 0xB43D, offset: 0xB43D, size: 0x8, addend: 0x0, symName: __ZNSt3__119__allocate_at_leastB8ue170006INS_9allocatorIiEEEENS_19__allocation_resultINS_16allocator_traitsIT_E7pointerEEERS5_m, symObjAddr: 0x5984, symBinAddr: 0x1000093C0, symSize: 0x40 }
  - { offsetInCU: 0xB480, offset: 0xB480, size: 0x8, addend: 0x0, symName: __ZNSt3__112__to_addressB8ue170006IiEEPT_S2_, symObjAddr: 0x5CD4, symBinAddr: 0x100009710, symSize: 0x14 }
  - { offsetInCU: 0xB4B5, offset: 0xB4B5, size: 0x8, addend: 0x0, symName: __ZNSt3__1eqB8ue170006IPK4EdgeEEbRKNS_11__wrap_iterIT_EES8_, symObjAddr: 0x6258, symBinAddr: 0x100009C94, symSize: 0x48 }
  - { offsetInCU: 0xB4F8, offset: 0xB4F8, size: 0x8, addend: 0x0, symName: __ZNSt3__1eqB8ue170006IP4EdgeEEbRKNS_11__wrap_iterIT_EES7_, symObjAddr: 0x633C, symBinAddr: 0x100009D78, symSize: 0x48 }
  - { offsetInCU: 0xB53B, offset: 0xB53B, size: 0x8, addend: 0x0, symName: __ZNSt3__130__uninitialized_allocator_copyB8ue170006INS_9allocatorIiEEPiS3_S3_EET2_RT_T0_T1_S4_, symObjAddr: 0x662C, symBinAddr: 0x10000A068, symSize: 0x80 }
  - { offsetInCU: 0xB5D8, offset: 0xB5D8, size: 0x8, addend: 0x0, symName: __ZNSt3__114__unwrap_rangeB8ue170006IPiS1_EENS_4pairIT0_S3_EET_S5_, symObjAddr: 0x66AC, symBinAddr: 0x10000A0E8, symSize: 0x60 }
  - { offsetInCU: 0xB624, offset: 0xB624, size: 0x8, addend: 0x0, symName: __ZNSt3__135__uninitialized_allocator_copy_implB8ue170006INS_9allocatorIiEEPiS3_S3_EET2_RT_T0_T1_S4_, symObjAddr: 0x670C, symBinAddr: 0x10000A148, symSize: 0xFC }
  - { offsetInCU: 0xB6C2, offset: 0xB6C2, size: 0x8, addend: 0x0, symName: __ZNSt3__113__unwrap_iterB8ue170006IPiNS_18__unwrap_iter_implIS1_Lb1EEELi0EEEDTclsrT0_8__unwrapclsr3stdE7declvalIT_EEEES5_, symObjAddr: 0x6808, symBinAddr: 0x10000A244, symSize: 0x24 }
  - { offsetInCU: 0xB706, offset: 0xB706, size: 0x8, addend: 0x0, symName: __ZNSt3__113__rewrap_iterB8ue170006IPiS1_NS_18__unwrap_iter_implIS1_Lb1EEEEET_S4_T0_, symObjAddr: 0x682C, symBinAddr: 0x10000A268, symSize: 0x50 }
  - { offsetInCU: 0xB75B, offset: 0xB75B, size: 0x8, addend: 0x0, symName: __ZNSt3__19make_pairB8ue170006IPiS1_EENS_4pairINS_18__unwrap_ref_decayIT_E4typeENS3_IT0_E4typeEEEOS4_OS7_, symObjAddr: 0x687C, symBinAddr: 0x10000A2B8, symSize: 0x38 }
  - { offsetInCU: 0xB857, offset: 0xB857, size: 0x8, addend: 0x0, symName: __ZNSt3__122__make_exception_guardB8ue170006INS_29_AllocatorDestroyRangeReverseINS_9allocatorIiEEPiEEEENS_28__exception_guard_exceptionsIT_EES7_, symObjAddr: 0x6924, symBinAddr: 0x10000A360, symSize: 0x4C }
  - { offsetInCU: 0xB88D, offset: 0xB88D, size: 0x8, addend: 0x0, symName: __ZNSt3__119__allocator_destroyB8ue170006INS_9allocatorIiEENS_16reverse_iteratorIPiEES5_EEvRT_T0_T1_, symObjAddr: 0x6BA4, symBinAddr: 0x10000A5E0, symSize: 0x70 }
  - { offsetInCU: 0xB8F0, offset: 0xB8F0, size: 0x8, addend: 0x0, symName: __ZNSt3__1neB8ue170006IPiS1_EEbRKNS_16reverse_iteratorIT_EERKNS2_IT0_EE, symObjAddr: 0x6C48, symBinAddr: 0x10000A684, symSize: 0x48 }
  - { offsetInCU: 0xB93C, offset: 0xB93C, size: 0x8, addend: 0x0, symName: __ZNSt3__112__to_addressB8ue170006INS_16reverse_iteratorIPiEEvEEu7__decayIDTclsr19__to_address_helperIT_EE6__callclsr3stdE7declvalIRKS4_EEEEES6_, symObjAddr: 0x6C90, symBinAddr: 0x10000A6CC, symSize: 0x24 }
  - { offsetInCU: 0xB9EE, offset: 0xB9EE, size: 0x8, addend: 0x0, symName: __ZNSt3__19use_facetB8ue170006INS_5ctypeIcEEEERKT_RKNS_6localeE, symObjAddr: 0x6EAC, symBinAddr: 0x10000A8E8, symSize: 0x2C }
  - { offsetInCU: 0xBEBB, offset: 0xBEBB, size: 0x8, addend: 0x0, symName: __ZNSt3__116__pad_and_outputB8ue170006IcNS_11char_traitsIcEEEENS_19ostreambuf_iteratorIT_T0_EES6_PKS4_S8_S8_RNS_8ios_baseES4_, symObjAddr: 0x7120, symBinAddr: 0x10000AB5C, symSize: 0x248 }
  - { offsetInCU: 0xC228, offset: 0xC228, size: 0x8, addend: 0x0, symName: __ZSt28__throw_bad_array_new_lengthB8ue170006v, symObjAddr: 0x1DE0, symBinAddr: 0x10000581C, symSize: 0x34 }
  - { offsetInCU: 0xC820, offset: 0xC820, size: 0x8, addend: 0x0, symName: __ZNSt3__16vectorI4EdgeNS_9allocatorIS1_EEE26__swap_out_circular_bufferERNS_14__split_bufferIS1_RS3_EE, symObjAddr: 0x432C, symBinAddr: 0x100007D68, symSize: 0x110 }
  - { offsetInCU: 0xEDF4, offset: 0xEDF4, size: 0x8, addend: 0x0, symName: __Z9readInputv, symObjAddr: 0x0, symBinAddr: 0x100003A3C, symSize: 0x264 }
  - { offsetInCU: 0xEEAA, offset: 0xEEAA, size: 0x8, addend: 0x0, symName: __ZNSt3__112basic_stringIcNS_11char_traitsIcEENS_9allocatorIcEEEC1B8ue170006ILi0EEEPKc, symObjAddr: 0x264, symBinAddr: 0x100003CA0, symSize: 0x34 }
  - { offsetInCU: 0xF007, offset: 0xF007, size: 0x8, addend: 0x0, symName: __ZNSt3__114basic_ifstreamIcNS_11char_traitsIcEEEC1ERKNS_12basic_stringIcS2_NS_9allocatorIcEEEEj, symObjAddr: 0x3B4, symBinAddr: 0x100003DF0, symSize: 0x17C }
  - { offsetInCU: 0xF051, offset: 0xF051, size: 0x8, addend: 0x0, symName: __ZNSt3__16vectorINS0_I4EdgeNS_9allocatorIS1_EEEENS2_IS4_EEEC1Em, symObjAddr: 0x53C, symBinAddr: 0x100003F78, symSize: 0x34 }
  - { offsetInCU: 0xF08C, offset: 0xF08C, size: 0x8, addend: 0x0, symName: __ZNSt3__16vectorINS0_I4EdgeNS_9allocatorIS1_EEEENS2_IS4_EEEixB8ue170006Em, symObjAddr: 0x570, symBinAddr: 0x100003FAC, symSize: 0x2C }
  - { offsetInCU: 0xF0C3, offset: 0xF0C3, size: 0x8, addend: 0x0, symName: __ZNSt3__16vectorI4EdgeNS_9allocatorIS1_EEE9push_backB8ue170006EOS1_, symObjAddr: 0x59C, symBinAddr: 0x100003FD8, symSize: 0x6C }
  - { offsetInCU: 0xF0F9, offset: 0xF0F9, size: 0x8, addend: 0x0, symName: __ZN4EdgeC1Eii, symObjAddr: 0x608, symBinAddr: 0x100004044, symSize: 0x3C }
  - { offsetInCU: 0xF13F, offset: 0xF13F, size: 0x8, addend: 0x0, symName: __ZNSt3__16vectorINS0_I4EdgeNS_9allocatorIS1_EEEENS2_IS4_EEED1B8ue170006Ev, symObjAddr: 0x644, symBinAddr: 0x100004080, symSize: 0x2C }
  - { offsetInCU: 0xF16E, offset: 0xF16E, size: 0x8, addend: 0x0, symName: __ZNSt3__114basic_ifstreamIcNS_11char_traitsIcEEED1Ev, symObjAddr: 0x670, symBinAddr: 0x1000040AC, symSize: 0x70 }
  - { offsetInCU: 0xF19A, offset: 0xF19A, size: 0x8, addend: 0x0, symName: __Z10initialCuti, symObjAddr: 0x6E0, symBinAddr: 0x10000411C, symSize: 0xD4 }
  - { offsetInCU: 0xF1F3, offset: 0xF1F3, size: 0x8, addend: 0x0, symName: __ZNSt3__16vectorIiNS_9allocatorIiEEEC1Em, symObjAddr: 0x7B4, symBinAddr: 0x1000041F0, symSize: 0x34 }
  - { offsetInCU: 0xF22E, offset: 0xF22E, size: 0x8, addend: 0x0, symName: __ZNSt3__16vectorIiNS_9allocatorIiEEEixB8ue170006Em, symObjAddr: 0x7E8, symBinAddr: 0x100004224, symSize: 0x24 }
  - { offsetInCU: 0xF265, offset: 0xF265, size: 0x8, addend: 0x0, symName: __ZNSt3__16vectorIiNS_9allocatorIiEEED1B8ue170006Ev, symObjAddr: 0x80C, symBinAddr: 0x100004248, symSize: 0x2C }
  - { offsetInCU: 0xF28E, offset: 0xF28E, size: 0x8, addend: 0x0, symName: __Z16computeCutWeightRKNSt3__16vectorINS0_I4EdgeNS_9allocatorIS1_EEEENS2_IS4_EEEERKNS0_IiNS2_IiEEEE, symObjAddr: 0x838, symBinAddr: 0x100004274, symSize: 0x120 }
  - { offsetInCU: 0xF347, offset: 0xF347, size: 0x8, addend: 0x0, symName: __ZNKSt3__16vectorINS0_I4EdgeNS_9allocatorIS1_EEEENS2_IS4_EEE4sizeB8ue170006Ev, symObjAddr: 0x958, symBinAddr: 0x100004394, symSize: 0x28 }
  - { offsetInCU: 0xF36D, offset: 0xF36D, size: 0x8, addend: 0x0, symName: __ZNKSt3__16vectorINS0_I4EdgeNS_9allocatorIS1_EEEENS2_IS4_EEEixB8ue170006Em, symObjAddr: 0x980, symBinAddr: 0x1000043BC, symSize: 0x2C }
  - { offsetInCU: 0xF3A4, offset: 0xF3A4, size: 0x8, addend: 0x0, symName: __ZNKSt3__16vectorI4EdgeNS_9allocatorIS1_EEE5beginB8ue170006Ev, symObjAddr: 0x9AC, symBinAddr: 0x1000043E8, symSize: 0x30 }
  - { offsetInCU: 0xF3CB, offset: 0xF3CB, size: 0x8, addend: 0x0, symName: __ZNKSt3__16vectorI4EdgeNS_9allocatorIS1_EEE3endB8ue170006Ev, symObjAddr: 0x9DC, symBinAddr: 0x100004418, symSize: 0x30 }
  - { offsetInCU: 0xF3F2, offset: 0xF3F2, size: 0x8, addend: 0x0, symName: __ZNKSt3__111__wrap_iterIPK4EdgeEdeB8ue170006Ev, symObjAddr: 0xA40, symBinAddr: 0x10000447C, symSize: 0x18 }
  - { offsetInCU: 0xF418, offset: 0xF418, size: 0x8, addend: 0x0, symName: __ZNKSt3__16vectorIiNS_9allocatorIiEEEixB8ue170006Em, symObjAddr: 0xA58, symBinAddr: 0x100004494, symSize: 0x24 }
  - { offsetInCU: 0xF44F, offset: 0xF44F, size: 0x8, addend: 0x0, symName: __ZNSt3__111__wrap_iterIPK4EdgeEppB8ue170006Ev, symObjAddr: 0xA7C, symBinAddr: 0x1000044B8, symSize: 0x20 }
  - { offsetInCU: 0xF474, offset: 0xF474, size: 0x8, addend: 0x0, symName: __Z16labelPropagationRNSt3__16vectorINS0_I4EdgeNS_9allocatorIS1_EEEENS2_IS4_EEEERNS0_IiNS2_IiEEEE, symObjAddr: 0xA9C, symBinAddr: 0x1000044D8, symSize: 0x1A8 }
  - { offsetInCU: 0xF54A, offset: 0xF54A, size: 0x8, addend: 0x0, symName: __ZNSt3__16vectorI4EdgeNS_9allocatorIS1_EEE5beginB8ue170006Ev, symObjAddr: 0xC44, symBinAddr: 0x100004680, symSize: 0x30 }
  - { offsetInCU: 0xF571, offset: 0xF571, size: 0x8, addend: 0x0, symName: __ZNSt3__16vectorI4EdgeNS_9allocatorIS1_EEE3endB8ue170006Ev, symObjAddr: 0xC74, symBinAddr: 0x1000046B0, symSize: 0x30 }
  - { offsetInCU: 0xF598, offset: 0xF598, size: 0x8, addend: 0x0, symName: __ZNKSt3__111__wrap_iterIP4EdgeEdeB8ue170006Ev, symObjAddr: 0xCD8, symBinAddr: 0x100004714, symSize: 0x18 }
  - { offsetInCU: 0xF5BE, offset: 0xF5BE, size: 0x8, addend: 0x0, symName: __ZNSt3__111__wrap_iterIP4EdgeEppB8ue170006Ev, symObjAddr: 0xCF0, symBinAddr: 0x10000472C, symSize: 0x20 }
  - { offsetInCU: 0xF5E4, offset: 0xF5E4, size: 0x8, addend: 0x0, symName: __ZNSt3__16vectorIiNS_9allocatorIiEEEC1ERKS3_, symObjAddr: 0xD10, symBinAddr: 0x10000474C, symSize: 0x34 }
  - { offsetInCU: 0xF61F, offset: 0xF61F, size: 0x8, addend: 0x0, symName: __Z11printOutputiRKNSt3__16vectorIiNS_9allocatorIiEEEE, symObjAddr: 0xD44, symBinAddr: 0x100004780, symSize: 0xD4 }
  - { offsetInCU: 0xF673, offset: 0xF673, size: 0x8, addend: 0x0, symName: __ZNSt3__113basic_ostreamIcNS_11char_traitsIcEEElsB8ue170006EPFRS3_S4_E, symObjAddr: 0xE18, symBinAddr: 0x100004854, symSize: 0x2C }
  - { offsetInCU: 0xF6A7, offset: 0xF6A7, size: 0x8, addend: 0x0, symName: __ZNKSt3__16vectorIiNS_9allocatorIiEEE4sizeB8ue170006Ev, symObjAddr: 0xE9C, symBinAddr: 0x1000048D8, symSize: 0x28 }
  - { offsetInCU: 0xF6CD, offset: 0xF6CD, size: 0x8, addend: 0x0, symName: __Z6maxCutRNSt3__16vectorINS0_I4EdgeNS_9allocatorIS1_EEEENS2_IS4_EEEEi, symObjAddr: 0xF0C, symBinAddr: 0x100004948, symSize: 0xD4 }
  - { offsetInCU: 0xF720, offset: 0xF720, size: 0x8, addend: 0x0, symName: __ZNSt3__16vectorIiNS_9allocatorIiEEEaSB8ue170006EOS3_, symObjAddr: 0xFE0, symBinAddr: 0x100004A1C, symSize: 0x34 }
  - { offsetInCU: 0xF756, offset: 0xF756, size: 0x8, addend: 0x0, symName: _main, symObjAddr: 0x1014, symBinAddr: 0x100004A50, symSize: 0x80 }
  - { offsetInCU: 0xF78D, offset: 0xF78D, size: 0x8, addend: 0x0, symName: __ZN4EdgeC2Eii, symObjAddr: 0x1094, symBinAddr: 0x100004AD0, symSize: 0x2C }
  - { offsetInCU: 0xF7D3, offset: 0xF7D3, size: 0x8, addend: 0x0, symName: __ZNSt3__114basic_ifstreamIcNS_11char_traitsIcEEED2Ev, symObjAddr: 0x10C0, symBinAddr: 0x100004AFC, symSize: 0x9C }
  - { offsetInCU: 0xF80D, offset: 0xF80D, size: 0x8, addend: 0x0, symName: __ZTv0_n24_NSt3__114basic_ifstreamIcNS_11char_traitsIcEEED1Ev, symObjAddr: 0x115C, symBinAddr: 0x100004B98, symSize: 0x28 }
  - { offsetInCU: 0xF824, offset: 0xF824, size: 0x8, addend: 0x0, symName: __ZNSt3__112basic_stringIcNS_11char_traitsIcEENS_9allocatorIcEEEC2B8ue170006ILi0EEEPKc, symObjAddr: 0x1184, symBinAddr: 0x100004BC0, symSize: 0x58 }
  - { offsetInCU: 0xF868, offset: 0xF868, size: 0x8, addend: 0x0, symName: __ZNSt3__117__compressed_pairINS_12basic_stringIcNS_11char_traitsIcEENS_9allocatorIcEEE5__repES5_EC1B8ue170006INS_18__default_init_tagESA_EEOT_OT0_, symObjAddr: 0x11DC, symBinAddr: 0x100004C18, symSize: 0x3C }
  - { offsetInCU: 0xF8C0, offset: 0xF8C0, size: 0x8, addend: 0x0, symName: __ZNSt3__111char_traitsIcE6lengthB8ue170006EPKc, symObjAddr: 0x1218, symBinAddr: 0x100004C54, symSize: 0x48 }
  - { offsetInCU: 0xF8E3, offset: 0xF8E3, size: 0x8, addend: 0x0, symName: __ZNSt3__117__compressed_pairINS_12basic_stringIcNS_11char_traitsIcEENS_9allocatorIcEEE5__repES5_EC2B8ue170006INS_18__default_init_tagESA_EEOT_OT0_, symObjAddr: 0x1260, symBinAddr: 0x100004C9C, symSize: 0x3C }
  - { offsetInCU: 0xF93B, offset: 0xF93B, size: 0x8, addend: 0x0, symName: __ZNSt3__122__compressed_pair_elemINS_12basic_stringIcNS_11char_traitsIcEENS_9allocatorIcEEE5__repELi0ELb0EEC2B8ue170006ENS_18__default_init_tagE, symObjAddr: 0x129C, symBinAddr: 0x100004CD8, symSize: 0x14 }
  - { offsetInCU: 0xF970, offset: 0xF970, size: 0x8, addend: 0x0, symName: __ZNSt3__122__compressed_pair_elemINS_9allocatorIcEELi1ELb1EEC2B8ue170006ENS_18__default_init_tagE, symObjAddr: 0x12B0, symBinAddr: 0x100004CEC, symSize: 0x2C }
  - { offsetInCU: 0xF9A5, offset: 0xF9A5, size: 0x8, addend: 0x0, symName: __ZNSt3__19allocatorIcEC2B8ue170006Ev, symObjAddr: 0x12DC, symBinAddr: 0x100004D18, symSize: 0x2C }
  - { offsetInCU: 0xF9CF, offset: 0xF9CF, size: 0x8, addend: 0x0, symName: __ZNSt3__116__non_trivial_ifILb1ENS_9allocatorIcEEEC2B8ue170006Ev, symObjAddr: 0x1308, symBinAddr: 0x100004D44, symSize: 0x14 }
  - { offsetInCU: 0xF9F9, offset: 0xF9F9, size: 0x8, addend: 0x0, symName: __ZNKSt3__112basic_stringIcNS_11char_traitsIcEENS_9allocatorIcEEE4sizeB8ue170006Ev, symObjAddr: 0x1340, symBinAddr: 0x100004D7C, symSize: 0x54 }
  - { offsetInCU: 0xFA29, offset: 0xFA29, size: 0x8, addend: 0x0, symName: __ZNSt3__116allocator_traitsINS_9allocatorIcEEE37select_on_container_copy_constructionB8ue170006IS2_vvEES2_RKS2_, symObjAddr: 0x1394, symBinAddr: 0x100004DD0, symSize: 0x10 }
  - { offsetInCU: 0xFA58, offset: 0xFA58, size: 0x8, addend: 0x0, symName: __ZNKSt3__112basic_stringIcNS_11char_traitsIcEENS_9allocatorIcEEE13get_allocatorB8ue170006Ev, symObjAddr: 0x13A4, symBinAddr: 0x100004DE0, symSize: 0x24 }
  - { offsetInCU: 0xFA7E, offset: 0xFA7E, size: 0x8, addend: 0x0, symName: __ZNSt3__112basic_stringIcNS_11char_traitsIcEENS_9allocatorIcEEEC1B8ue170006ENS_24__uninitialized_size_tagEmRKS4_, symObjAddr: 0x13C8, symBinAddr: 0x100004E04, symSize: 0x3C }
  - { offsetInCU: 0xFAD1, offset: 0xFAD1, size: 0x8, addend: 0x0, symName: __ZNSt3__112basic_stringIcNS_11char_traitsIcEENS_9allocatorIcEEE13__get_pointerB8ue170006Ev, symObjAddr: 0x1418, symBinAddr: 0x100004E54, symSize: 0x54 }
  - { offsetInCU: 0xFAF7, offset: 0xFAF7, size: 0x8, addend: 0x0, symName: __ZNSt3__111char_traitsIcE4copyB8ue170006EPcPKcm, symObjAddr: 0x146C, symBinAddr: 0x100004EA8, symSize: 0x64 }
  - { offsetInCU: 0xFB36, offset: 0xFB36, size: 0x8, addend: 0x0, symName: __ZNKSt3__112basic_stringIcNS_11char_traitsIcEENS_9allocatorIcEEE4dataB8ue170006Ev, symObjAddr: 0x14D0, symBinAddr: 0x100004F0C, symSize: 0x28 }
  - { offsetInCU: 0xFB5C, offset: 0xFB5C, size: 0x8, addend: 0x0, symName: __ZNSt3__111char_traitsIcE6assignB8ue170006EPcmc, symObjAddr: 0x14F8, symBinAddr: 0x100004F34, symSize: 0x58 }
  - { offsetInCU: 0xFB9B, offset: 0xFB9B, size: 0x8, addend: 0x0, symName: __ZNKSt3__112basic_stringIcNS_11char_traitsIcEENS_9allocatorIcEEE9__is_longB8ue170006Ev, symObjAddr: 0x1550, symBinAddr: 0x100004F8C, symSize: 0x74 }
  - { offsetInCU: 0xFBC1, offset: 0xFBC1, size: 0x8, addend: 0x0, symName: __ZNKSt3__112basic_stringIcNS_11char_traitsIcEENS_9allocatorIcEEE15__get_long_sizeB8ue170006Ev, symObjAddr: 0x15C4, symBinAddr: 0x100005000, symSize: 0x28 }
  - { offsetInCU: 0xFBE7, offset: 0xFBE7, size: 0x8, addend: 0x0, symName: __ZNKSt3__112basic_stringIcNS_11char_traitsIcEENS_9allocatorIcEEE16__get_short_sizeB8ue170006Ev, symObjAddr: 0x15EC, symBinAddr: 0x100005028, symSize: 0x34 }
  - { offsetInCU: 0xFC0D, offset: 0xFC0D, size: 0x8, addend: 0x0, symName: __ZNKSt3__117__compressed_pairINS_12basic_stringIcNS_11char_traitsIcEENS_9allocatorIcEEE5__repES5_E5firstB8ue170006Ev, symObjAddr: 0x162C, symBinAddr: 0x100005068, symSize: 0x24 }
  - { offsetInCU: 0xFC33, offset: 0xFC33, size: 0x8, addend: 0x0, symName: __ZNKSt3__122__compressed_pair_elemINS_12basic_stringIcNS_11char_traitsIcEENS_9allocatorIcEEE5__repELi0ELb0EE5__getB8ue170006Ev, symObjAddr: 0x1650, symBinAddr: 0x10000508C, symSize: 0x14 }
  - { offsetInCU: 0xFC59, offset: 0xFC59, size: 0x8, addend: 0x0, symName: __ZNKSt3__112basic_stringIcNS_11char_traitsIcEENS_9allocatorIcEEE7__allocB8ue170006Ev, symObjAddr: 0x1664, symBinAddr: 0x1000050A0, symSize: 0x24 }
  - { offsetInCU: 0xFC7F, offset: 0xFC7F, size: 0x8, addend: 0x0, symName: __ZNKSt3__117__compressed_pairINS_12basic_stringIcNS_11char_traitsIcEENS_9allocatorIcEEE5__repES5_E6secondB8ue170006Ev, symObjAddr: 0x1688, symBinAddr: 0x1000050C4, symSize: 0x24 }
  - { offsetInCU: 0xFCA5, offset: 0xFCA5, size: 0x8, addend: 0x0, symName: __ZNKSt3__122__compressed_pair_elemINS_9allocatorIcEELi1ELb1EE5__getB8ue170006Ev, symObjAddr: 0x16AC, symBinAddr: 0x1000050E8, symSize: 0x14 }
  - { offsetInCU: 0xFCCB, offset: 0xFCCB, size: 0x8, addend: 0x0, symName: __ZNSt3__112basic_stringIcNS_11char_traitsIcEENS_9allocatorIcEEEC2B8ue170006ENS_24__uninitialized_size_tagEmRKS4_, symObjAddr: 0x16C0, symBinAddr: 0x1000050FC, symSize: 0x110 }
  - { offsetInCU: 0xFD4B, offset: 0xFD4B, size: 0x8, addend: 0x0, symName: __ZNSt3__117__compressed_pairINS_12basic_stringIcNS_11char_traitsIcEENS_9allocatorIcEEE5__repES5_EC1B8ue170006INS_18__default_init_tagERKS5_EEOT_OT0_, symObjAddr: 0x17D0, symBinAddr: 0x10000520C, symSize: 0x3C }
  - { offsetInCU: 0xFDA3, offset: 0xFDA3, size: 0x8, addend: 0x0, symName: __ZNKSt3__112basic_stringIcNS_11char_traitsIcEENS_9allocatorIcEEE8max_sizeB8ue170006Ev, symObjAddr: 0x180C, symBinAddr: 0x100005248, symSize: 0xAC }
  - { offsetInCU: 0xFDF6, offset: 0xFDF6, size: 0x8, addend: 0x0, symName: __ZNKSt3__112basic_stringIcNS_11char_traitsIcEENS_9allocatorIcEEE20__throw_length_errorB8ue170006Ev, symObjAddr: 0x18B8, symBinAddr: 0x1000052F4, symSize: 0x1C }
  - { offsetInCU: 0xFE1C, offset: 0xFE1C, size: 0x8, addend: 0x0, symName: __ZNSt3__112basic_stringIcNS_11char_traitsIcEENS_9allocatorIcEEE13__fits_in_ssoB8ue170006Em, symObjAddr: 0x18D4, symBinAddr: 0x100005310, symSize: 0x4C }
  - { offsetInCU: 0xFE40, offset: 0xFE40, size: 0x8, addend: 0x0, symName: __ZNSt3__117__compressed_pairINS_12basic_stringIcNS_11char_traitsIcEENS_9allocatorIcEEE5__repES5_E5firstB8ue170006Ev, symObjAddr: 0x1920, symBinAddr: 0x10000535C, symSize: 0x24 }
  - { offsetInCU: 0xFE66, offset: 0xFE66, size: 0x8, addend: 0x0, symName: __ZNSt3__112basic_stringIcNS_11char_traitsIcEENS_9allocatorIcEEE16__set_short_sizeB8ue170006Em, symObjAddr: 0x1944, symBinAddr: 0x100005380, symSize: 0x78 }
  - { offsetInCU: 0xFE9B, offset: 0xFE9B, size: 0x8, addend: 0x0, symName: __ZNSt3__112basic_stringIcNS_11char_traitsIcEENS_9allocatorIcEEE11__recommendB8ue170006Em, symObjAddr: 0x19BC, symBinAddr: 0x1000053F8, symSize: 0x9C }
  - { offsetInCU: 0xFECE, offset: 0xFECE, size: 0x8, addend: 0x0, symName: __ZNSt3__116allocator_traitsINS_9allocatorIcEEE8allocateB8ue170006ERS2_m, symObjAddr: 0x1A58, symBinAddr: 0x100005494, symSize: 0x2C }
  - { offsetInCU: 0xFF01, offset: 0xFF01, size: 0x8, addend: 0x0, symName: __ZNSt3__112basic_stringIcNS_11char_traitsIcEENS_9allocatorIcEEE7__allocB8ue170006Ev, symObjAddr: 0x1A84, symBinAddr: 0x1000054C0, symSize: 0x24 }
  - { offsetInCU: 0xFF27, offset: 0xFF27, size: 0x8, addend: 0x0, symName: __ZNSt3__112basic_stringIcNS_11char_traitsIcEENS_9allocatorIcEEE16__begin_lifetimeB8ue170006EPcm, symObjAddr: 0x1AA8, symBinAddr: 0x1000054E4, symSize: 0x14 }
  - { offsetInCU: 0xFF5A, offset: 0xFF5A, size: 0x8, addend: 0x0, symName: __ZNSt3__112basic_stringIcNS_11char_traitsIcEENS_9allocatorIcEEE14__set_long_capB8ue170006Em, symObjAddr: 0x1ABC, symBinAddr: 0x1000054F8, symSize: 0x70 }
  - { offsetInCU: 0xFF8F, offset: 0xFF8F, size: 0x8, addend: 0x0, symName: __ZNSt3__112basic_stringIcNS_11char_traitsIcEENS_9allocatorIcEEE18__set_long_pointerB8ue170006EPc, symObjAddr: 0x1B2C, symBinAddr: 0x100005568, symSize: 0x38 }
  - { offsetInCU: 0xFFC4, offset: 0xFFC4, size: 0x8, addend: 0x0, symName: __ZNSt3__112basic_stringIcNS_11char_traitsIcEENS_9allocatorIcEEE15__set_long_sizeB8ue170006Em, symObjAddr: 0x1B64, symBinAddr: 0x1000055A0, symSize: 0x38 }
  - { offsetInCU: 0xFFF9, offset: 0xFFF9, size: 0x8, addend: 0x0, symName: __ZNSt3__117__compressed_pairINS_12basic_stringIcNS_11char_traitsIcEENS_9allocatorIcEEE5__repES5_EC2B8ue170006INS_18__default_init_tagERKS5_EEOT_OT0_, symObjAddr: 0x1B9C, symBinAddr: 0x1000055D8, symSize: 0x40 }
  - { offsetInCU: 0x10051, offset: 0x10051, size: 0x8, addend: 0x0, symName: __ZNSt3__122__compressed_pair_elemINS_9allocatorIcEELi1ELb1EEC2B8ue170006IRKS2_vEEOT_, symObjAddr: 0x1BDC, symBinAddr: 0x100005618, symSize: 0x18 }
  - { offsetInCU: 0x10093, offset: 0x10093, size: 0x8, addend: 0x0, symName: __ZNSt3__116allocator_traitsINS_9allocatorIcEEE8max_sizeB8ue170006IS2_vEEmRKS2_, symObjAddr: 0x1BF4, symBinAddr: 0x100005630, symSize: 0x24 }
  - { offsetInCU: 0x100C1, offset: 0x100C1, size: 0x8, addend: 0x0, symName: __ZNSt3__114numeric_limitsImE3maxB8ue170006Ev, symObjAddr: 0x1C18, symBinAddr: 0x100005654, symSize: 0x14 }
  - { offsetInCU: 0x100D5, offset: 0x100D5, size: 0x8, addend: 0x0, symName: __ZNKSt3__19allocatorIcE8max_sizeB8ue170006Ev, symObjAddr: 0x1C2C, symBinAddr: 0x100005668, symSize: 0x14 }
  - { offsetInCU: 0x100FB, offset: 0x100FB, size: 0x8, addend: 0x0, symName: __ZNSt3__123__libcpp_numeric_limitsImLb1EE3maxB8ue170006Ev, symObjAddr: 0x1C40, symBinAddr: 0x10000567C, symSize: 0x8 }
  - { offsetInCU: 0x1010F, offset: 0x1010F, size: 0x8, addend: 0x0, symName: __ZNSt12length_errorC1B8ue170006EPKc, symObjAddr: 0x1CAC, symBinAddr: 0x1000056E8, symSize: 0x34 }
  - { offsetInCU: 0x10147, offset: 0x10147, size: 0x8, addend: 0x0, symName: __ZNSt12length_errorC2B8ue170006EPKc, symObjAddr: 0x1CE0, symBinAddr: 0x10000571C, symSize: 0x4C }
  - { offsetInCU: 0x1017F, offset: 0x1017F, size: 0x8, addend: 0x0, symName: __ZNSt3__122__compressed_pair_elemINS_12basic_stringIcNS_11char_traitsIcEENS_9allocatorIcEEE5__repELi0ELb0EE5__getB8ue170006Ev, symObjAddr: 0x1D2C, symBinAddr: 0x100005768, symSize: 0x14 }
  - { offsetInCU: 0x101A5, offset: 0x101A5, size: 0x8, addend: 0x0, symName: __ZNSt3__112basic_stringIcNS_11char_traitsIcEENS_9allocatorIcEEE10__align_itB8ue170006ILm16EEEmm, symObjAddr: 0x1D40, symBinAddr: 0x10000577C, symSize: 0x1C }
  - { offsetInCU: 0x101D3, offset: 0x101D3, size: 0x8, addend: 0x0, symName: __ZNSt3__19allocatorIcE8allocateB8ue170006Em, symObjAddr: 0x1D5C, symBinAddr: 0x100005798, symSize: 0x84 }
  - { offsetInCU: 0x10207, offset: 0x10207, size: 0x8, addend: 0x0, symName: __ZNSt3__117__compressed_pairINS_12basic_stringIcNS_11char_traitsIcEENS_9allocatorIcEEE5__repES5_E6secondB8ue170006Ev, symObjAddr: 0x1E60, symBinAddr: 0x10000589C, symSize: 0x24 }
  - { offsetInCU: 0x1022D, offset: 0x1022D, size: 0x8, addend: 0x0, symName: __ZNSt3__122__compressed_pair_elemINS_9allocatorIcEELi1ELb1EE5__getB8ue170006Ev, symObjAddr: 0x1E84, symBinAddr: 0x1000058C0, symSize: 0x14 }
  - { offsetInCU: 0x10253, offset: 0x10253, size: 0x8, addend: 0x0, symName: __ZNSt3__112basic_stringIcNS_11char_traitsIcEENS_9allocatorIcEEE18__get_long_pointerB8ue170006Ev, symObjAddr: 0x1E98, symBinAddr: 0x1000058D4, symSize: 0x28 }
  - { offsetInCU: 0x10279, offset: 0x10279, size: 0x8, addend: 0x0, symName: __ZNSt3__112basic_stringIcNS_11char_traitsIcEENS_9allocatorIcEEE19__get_short_pointerB8ue170006Ev, symObjAddr: 0x1EC0, symBinAddr: 0x1000058FC, symSize: 0x28 }
  - { offsetInCU: 0x1029F, offset: 0x1029F, size: 0x8, addend: 0x0, symName: __ZNSt3__114pointer_traitsIPcE10pointer_toB8ue170006ERc, symObjAddr: 0x1EE8, symBinAddr: 0x100005924, symSize: 0x14 }
  - { offsetInCU: 0x102F9, offset: 0x102F9, size: 0x8, addend: 0x0, symName: __ZNKSt3__114__copy_trivialclB8ue170006IKccLi0EEENS_4pairIPT_PT0_EES5_S5_S7_, symObjAddr: 0x211C, symBinAddr: 0x100005B58, symSize: 0x48 }
  - { offsetInCU: 0x1037A, offset: 0x1037A, size: 0x8, addend: 0x0, symName: __ZNSt3__14pairIPKcS2_EC1B8ue170006ERKS2_S5_, symObjAddr: 0x2298, symBinAddr: 0x100005CD4, symSize: 0x3C }
  - { offsetInCU: 0x103C0, offset: 0x103C0, size: 0x8, addend: 0x0, symName: __ZNSt3__14pairIPKcS2_EC2B8ue170006ERKS2_S5_, symObjAddr: 0x22D4, symBinAddr: 0x100005D10, symSize: 0x34 }
  - { offsetInCU: 0x10406, offset: 0x10406, size: 0x8, addend: 0x0, symName: __ZNSt3__118__unwrap_iter_implIPKcLb1EE8__unwrapB8ue170006ES2_, symObjAddr: 0x2308, symBinAddr: 0x100005D44, symSize: 0x24 }
  - { offsetInCU: 0x10429, offset: 0x10429, size: 0x8, addend: 0x0, symName: __ZNSt3__14pairIPKcPcEC1B8ue170006ERKS2_RKS3_, symObjAddr: 0x2490, symBinAddr: 0x100005ECC, symSize: 0x3C }
  - { offsetInCU: 0x1046F, offset: 0x1046F, size: 0x8, addend: 0x0, symName: __ZNSt3__14pairIPKcPcEC2B8ue170006ERKS2_RKS3_, symObjAddr: 0x24CC, symBinAddr: 0x100005F08, symSize: 0x34 }
  - { offsetInCU: 0x104B5, offset: 0x104B5, size: 0x8, addend: 0x0, symName: __ZNSt3__118__unwrap_iter_implIPcLb1EE8__unwrapB8ue170006ES1_, symObjAddr: 0x2500, symBinAddr: 0x100005F3C, symSize: 0x24 }
  - { offsetInCU: 0x104D8, offset: 0x104D8, size: 0x8, addend: 0x0, symName: __ZNSt3__118__unwrap_iter_implIPKcLb1EE8__rewrapB8ue170006ES2_S2_, symObjAddr: 0x2574, symBinAddr: 0x100005FB0, symSize: 0x48 }
  - { offsetInCU: 0x10509, offset: 0x10509, size: 0x8, addend: 0x0, symName: __ZNSt3__118__unwrap_iter_implIPcLb1EE8__rewrapB8ue170006ES1_S1_, symObjAddr: 0x25BC, symBinAddr: 0x100005FF8, symSize: 0x48 }
  - { offsetInCU: 0x1053A, offset: 0x1053A, size: 0x8, addend: 0x0, symName: __ZNKSt3__112basic_stringIcNS_11char_traitsIcEENS_9allocatorIcEEE13__get_pointerB8ue170006Ev, symObjAddr: 0x2604, symBinAddr: 0x100006040, symSize: 0x54 }
  - { offsetInCU: 0x10560, offset: 0x10560, size: 0x8, addend: 0x0, symName: __ZNKSt3__112basic_stringIcNS_11char_traitsIcEENS_9allocatorIcEEE18__get_long_pointerB8ue170006Ev, symObjAddr: 0x2658, symBinAddr: 0x100006094, symSize: 0x28 }
  - { offsetInCU: 0x10586, offset: 0x10586, size: 0x8, addend: 0x0, symName: __ZNKSt3__112basic_stringIcNS_11char_traitsIcEENS_9allocatorIcEEE19__get_short_pointerB8ue170006Ev, symObjAddr: 0x2680, symBinAddr: 0x1000060BC, symSize: 0x28 }
  - { offsetInCU: 0x105AC, offset: 0x105AC, size: 0x8, addend: 0x0, symName: __ZNSt3__114pointer_traitsIPKcE10pointer_toB8ue170006ERS1_, symObjAddr: 0x26A8, symBinAddr: 0x1000060E4, symSize: 0x14 }
  - { offsetInCU: 0x105CF, offset: 0x105CF, size: 0x8, addend: 0x0, symName: __ZNSt3__19basic_iosIcNS_11char_traitsIcEEEC2B8ue170006Ev, symObjAddr: 0x2778, symBinAddr: 0x1000061B4, symSize: 0x44 }
  - { offsetInCU: 0x105F9, offset: 0x105F9, size: 0x8, addend: 0x0, symName: __ZNSt3__113basic_istreamIcNS_11char_traitsIcEEEC2B8ue170006EPNS_15basic_streambufIcS2_EE, symObjAddr: 0x27BC, symBinAddr: 0x1000061F8, symSize: 0x64 }
  - { offsetInCU: 0x1063E, offset: 0x1063E, size: 0x8, addend: 0x0, symName: __ZNSt3__113basic_filebufIcNS_11char_traitsIcEEE4openERKNS_12basic_stringIcS2_NS_9allocatorIcEEEEj, symObjAddr: 0x2820, symBinAddr: 0x10000625C, symSize: 0x44 }
  - { offsetInCU: 0x10681, offset: 0x10681, size: 0x8, addend: 0x0, symName: __ZNSt3__19basic_iosIcNS_11char_traitsIcEEE8setstateB8ue170006Ej, symObjAddr: 0x2864, symBinAddr: 0x1000062A0, symSize: 0x2C }
  - { offsetInCU: 0x106B6, offset: 0x106B6, size: 0x8, addend: 0x0, symName: __ZNSt3__18ios_baseC2B8ue170006Ev, symObjAddr: 0x2890, symBinAddr: 0x1000062CC, symSize: 0x24 }
  - { offsetInCU: 0x106E0, offset: 0x106E0, size: 0x8, addend: 0x0, symName: __ZNSt3__19basic_iosIcNS_11char_traitsIcEEE4initB8ue170006EPNS_15basic_streambufIcS2_EE, symObjAddr: 0x28B4, symBinAddr: 0x1000062F0, symSize: 0x44 }
  - { offsetInCU: 0x10716, offset: 0x10716, size: 0x8, addend: 0x0, symName: __ZNSt3__111char_traitsIcE3eofB8ue170006Ev, symObjAddr: 0x28F8, symBinAddr: 0x100006334, symSize: 0x8 }
  - { offsetInCU: 0x1072A, offset: 0x1072A, size: 0x8, addend: 0x0, symName: __ZNKSt3__112basic_stringIcNS_11char_traitsIcEENS_9allocatorIcEEE5c_strB8ue170006Ev, symObjAddr: 0x2900, symBinAddr: 0x10000633C, symSize: 0x24 }
  - { offsetInCU: 0x10750, offset: 0x10750, size: 0x8, addend: 0x0, symName: __ZNSt3__18ios_base8setstateB8ue170006Ej, symObjAddr: 0x2924, symBinAddr: 0x100006360, symSize: 0x34 }
  - { offsetInCU: 0x10786, offset: 0x10786, size: 0x8, addend: 0x0, symName: __ZNSt3__16vectorINS0_I4EdgeNS_9allocatorIS1_EEEENS2_IS4_EEEC2Em, symObjAddr: 0x2958, symBinAddr: 0x100006394, symSize: 0xDC }
  - { offsetInCU: 0x107DB, offset: 0x107DB, size: 0x8, addend: 0x0, symName: __ZNSt3__117__compressed_pairIPNS_6vectorI4EdgeNS_9allocatorIS2_EEEENS3_IS5_EEEC1B8ue170006IDnNS_18__default_init_tagEEEOT_OT0_, symObjAddr: 0x2A34, symBinAddr: 0x100006470, symSize: 0x3C }
  - { offsetInCU: 0x10833, offset: 0x10833, size: 0x8, addend: 0x0, symName: __ZNSt3__16vectorINS0_I4EdgeNS_9allocatorIS1_EEEENS2_IS4_EEE16__destroy_vectorC1B8ue170006ERS6_, symObjAddr: 0x2AB0, symBinAddr: 0x1000064EC, symSize: 0x34 }
  - { offsetInCU: 0x1086C, offset: 0x1086C, size: 0x8, addend: 0x0, symName: __ZNSt3__16vectorINS0_I4EdgeNS_9allocatorIS1_EEEENS2_IS4_EEE11__vallocateB8ue170006Em, symObjAddr: 0x2AE4, symBinAddr: 0x100006520, symSize: 0xB4 }
  - { offsetInCU: 0x108B0, offset: 0x108B0, size: 0x8, addend: 0x0, symName: __ZNSt3__16vectorINS0_I4EdgeNS_9allocatorIS1_EEEENS2_IS4_EEE18__construct_at_endEm, symObjAddr: 0x2B98, symBinAddr: 0x1000065D4, symSize: 0xD0 }
  - { offsetInCU: 0x10922, offset: 0x10922, size: 0x8, addend: 0x0, symName: __ZNSt3__128__exception_guard_exceptionsINS_6vectorINS1_I4EdgeNS_9allocatorIS2_EEEENS3_IS5_EEE16__destroy_vectorEE10__completeB8ue170006Ev, symObjAddr: 0x2C68, symBinAddr: 0x1000066A4, symSize: 0x1C }
  - { offsetInCU: 0x10948, offset: 0x10948, size: 0x8, addend: 0x0, symName: __ZNSt3__128__exception_guard_exceptionsINS_6vectorINS1_I4EdgeNS_9allocatorIS2_EEEENS3_IS5_EEE16__destroy_vectorEED1B8ue170006Ev, symObjAddr: 0x2C84, symBinAddr: 0x1000066C0, symSize: 0x2C }
  - { offsetInCU: 0x10972, offset: 0x10972, size: 0x8, addend: 0x0, symName: __ZNSt3__117__compressed_pairIPNS_6vectorI4EdgeNS_9allocatorIS2_EEEENS3_IS5_EEEC2B8ue170006IDnNS_18__default_init_tagEEEOT_OT0_, symObjAddr: 0x2CB0, symBinAddr: 0x1000066EC, symSize: 0x40 }
  - { offsetInCU: 0x109CA, offset: 0x109CA, size: 0x8, addend: 0x0, symName: __ZNSt3__122__compressed_pair_elemIPNS_6vectorI4EdgeNS_9allocatorIS2_EEEELi0ELb0EEC2B8ue170006IDnvEEOT_, symObjAddr: 0x2CF0, symBinAddr: 0x10000672C, symSize: 0x1C }
  - { offsetInCU: 0x10A0C, offset: 0x10A0C, size: 0x8, addend: 0x0, symName: __ZNSt3__122__compressed_pair_elemINS_9allocatorINS_6vectorI4EdgeNS1_IS3_EEEEEELi1ELb1EEC2B8ue170006ENS_18__default_init_tagE, symObjAddr: 0x2D0C, symBinAddr: 0x100006748, symSize: 0x2C }
  - { offsetInCU: 0x10A41, offset: 0x10A41, size: 0x8, addend: 0x0, symName: __ZNSt3__19allocatorINS_6vectorI4EdgeNS0_IS2_EEEEEC2B8ue170006Ev, symObjAddr: 0x2D38, symBinAddr: 0x100006774, symSize: 0x2C }
  - { offsetInCU: 0x10A6B, offset: 0x10A6B, size: 0x8, addend: 0x0, symName: __ZNSt3__116__non_trivial_ifILb1ENS_9allocatorINS_6vectorI4EdgeNS1_IS3_EEEEEEEC2B8ue170006Ev, symObjAddr: 0x2D64, symBinAddr: 0x1000067A0, symSize: 0x14 }
  - { offsetInCU: 0x10A95, offset: 0x10A95, size: 0x8, addend: 0x0, symName: __ZNSt3__128__exception_guard_exceptionsINS_6vectorINS1_I4EdgeNS_9allocatorIS2_EEEENS3_IS5_EEE16__destroy_vectorEEC1B8ue170006ES8_, symObjAddr: 0x2D78, symBinAddr: 0x1000067B4, symSize: 0x34 }
  - { offsetInCU: 0x10ACD, offset: 0x10ACD, size: 0x8, addend: 0x0, symName: __ZNSt3__128__exception_guard_exceptionsINS_6vectorINS1_I4EdgeNS_9allocatorIS2_EEEENS3_IS5_EEE16__destroy_vectorEEC2B8ue170006ES8_, symObjAddr: 0x2DAC, symBinAddr: 0x1000067E8, symSize: 0x24 }
  - { offsetInCU: 0x10B05, offset: 0x10B05, size: 0x8, addend: 0x0, symName: __ZNSt3__16vectorINS0_I4EdgeNS_9allocatorIS1_EEEENS2_IS4_EEE16__destroy_vectorC2B8ue170006ERS6_, symObjAddr: 0x2DD0, symBinAddr: 0x10000680C, symSize: 0x20 }
  - { offsetInCU: 0x10B3E, offset: 0x10B3E, size: 0x8, addend: 0x0, symName: __ZNKSt3__16vectorINS0_I4EdgeNS_9allocatorIS1_EEEENS2_IS4_EEE8max_sizeEv, symObjAddr: 0x2DF0, symBinAddr: 0x10000682C, symSize: 0x74 }
  - { offsetInCU: 0x10B65, offset: 0x10B65, size: 0x8, addend: 0x0, symName: __ZNKSt3__16vectorINS0_I4EdgeNS_9allocatorIS1_EEEENS2_IS4_EEE20__throw_length_errorB8ue170006Ev, symObjAddr: 0x2E64, symBinAddr: 0x1000068A0, symSize: 0x1C }
  - { offsetInCU: 0x10B8B, offset: 0x10B8B, size: 0x8, addend: 0x0, symName: __ZNSt3__16vectorINS0_I4EdgeNS_9allocatorIS1_EEEENS2_IS4_EEE7__allocB8ue170006Ev, symObjAddr: 0x2EC0, symBinAddr: 0x1000068FC, symSize: 0x28 }
  - { offsetInCU: 0x10BB1, offset: 0x10BB1, size: 0x8, addend: 0x0, symName: __ZNSt3__16vectorINS0_I4EdgeNS_9allocatorIS1_EEEENS2_IS4_EEE9__end_capB8ue170006Ev, symObjAddr: 0x2EE8, symBinAddr: 0x100006924, symSize: 0x28 }
  - { offsetInCU: 0x10BD7, offset: 0x10BD7, size: 0x8, addend: 0x0, symName: __ZNKSt3__16vectorINS0_I4EdgeNS_9allocatorIS1_EEEENS2_IS4_EEE14__annotate_newB8ue170006Em, symObjAddr: 0x2F10, symBinAddr: 0x10000694C, symSize: 0xC8 }
  - { offsetInCU: 0x10C16, offset: 0x10C16, size: 0x8, addend: 0x0, symName: __ZNSt3__116allocator_traitsINS_9allocatorINS_6vectorI4EdgeNS1_IS3_EEEEEEE8max_sizeB8ue170006IS6_vEEmRKS6_, symObjAddr: 0x3004, symBinAddr: 0x100006A40, symSize: 0x24 }
  - { offsetInCU: 0x10C44, offset: 0x10C44, size: 0x8, addend: 0x0, symName: __ZNKSt3__16vectorINS0_I4EdgeNS_9allocatorIS1_EEEENS2_IS4_EEE7__allocB8ue170006Ev, symObjAddr: 0x3028, symBinAddr: 0x100006A64, symSize: 0x28 }
  - { offsetInCU: 0x10C6A, offset: 0x10C6A, size: 0x8, addend: 0x0, symName: __ZNSt3__114numeric_limitsIlE3maxB8ue170006Ev, symObjAddr: 0x3050, symBinAddr: 0x100006A8C, symSize: 0x14 }
  - { offsetInCU: 0x10C92, offset: 0x10C92, size: 0x8, addend: 0x0, symName: __ZNKSt3__16__lessIvvEclB8ue170006ImmEEbRKT_RKT0_, symObjAddr: 0x30B8, symBinAddr: 0x100006AF4, symSize: 0x34 }
  - { offsetInCU: 0x10CE6, offset: 0x10CE6, size: 0x8, addend: 0x0, symName: __ZNKSt3__19allocatorINS_6vectorI4EdgeNS0_IS2_EEEEE8max_sizeB8ue170006Ev, symObjAddr: 0x30EC, symBinAddr: 0x100006B28, symSize: 0x18 }
  - { offsetInCU: 0x10D0C, offset: 0x10D0C, size: 0x8, addend: 0x0, symName: __ZNKSt3__117__compressed_pairIPNS_6vectorI4EdgeNS_9allocatorIS2_EEEENS3_IS5_EEE6secondB8ue170006Ev, symObjAddr: 0x3104, symBinAddr: 0x100006B40, symSize: 0x24 }
  - { offsetInCU: 0x10D32, offset: 0x10D32, size: 0x8, addend: 0x0, symName: __ZNKSt3__122__compressed_pair_elemINS_9allocatorINS_6vectorI4EdgeNS1_IS3_EEEEEELi1ELb1EE5__getB8ue170006Ev, symObjAddr: 0x3128, symBinAddr: 0x100006B64, symSize: 0x14 }
  - { offsetInCU: 0x10D58, offset: 0x10D58, size: 0x8, addend: 0x0, symName: __ZNSt3__123__libcpp_numeric_limitsIlLb1EE3maxB8ue170006Ev, symObjAddr: 0x313C, symBinAddr: 0x100006B78, symSize: 0x8 }
  - { offsetInCU: 0x10D6C, offset: 0x10D6C, size: 0x8, addend: 0x0, symName: __ZNSt3__19allocatorINS_6vectorI4EdgeNS0_IS2_EEEEE8allocateB8ue170006Em, symObjAddr: 0x3144, symBinAddr: 0x100006B80, symSize: 0x8C }
  - { offsetInCU: 0x10DA0, offset: 0x10DA0, size: 0x8, addend: 0x0, symName: __ZNSt3__117__compressed_pairIPNS_6vectorI4EdgeNS_9allocatorIS2_EEEENS3_IS5_EEE6secondB8ue170006Ev, symObjAddr: 0x31D0, symBinAddr: 0x100006C0C, symSize: 0x24 }
  - { offsetInCU: 0x10DC6, offset: 0x10DC6, size: 0x8, addend: 0x0, symName: __ZNSt3__122__compressed_pair_elemINS_9allocatorINS_6vectorI4EdgeNS1_IS3_EEEEEELi1ELb1EE5__getB8ue170006Ev, symObjAddr: 0x31F4, symBinAddr: 0x100006C30, symSize: 0x14 }
  - { offsetInCU: 0x10DEC, offset: 0x10DEC, size: 0x8, addend: 0x0, symName: __ZNSt3__117__compressed_pairIPNS_6vectorI4EdgeNS_9allocatorIS2_EEEENS3_IS5_EEE5firstB8ue170006Ev, symObjAddr: 0x3208, symBinAddr: 0x100006C44, symSize: 0x24 }
  - { offsetInCU: 0x10E12, offset: 0x10E12, size: 0x8, addend: 0x0, symName: __ZNSt3__122__compressed_pair_elemIPNS_6vectorI4EdgeNS_9allocatorIS2_EEEELi0ELb0EE5__getB8ue170006Ev, symObjAddr: 0x322C, symBinAddr: 0x100006C68, symSize: 0x14 }
  - { offsetInCU: 0x10E38, offset: 0x10E38, size: 0x8, addend: 0x0, symName: __ZNKSt3__16vectorINS0_I4EdgeNS_9allocatorIS1_EEEENS2_IS4_EEE31__annotate_contiguous_containerB8ue170006EPKvS8_S8_S8_, symObjAddr: 0x3240, symBinAddr: 0x100006C7C, symSize: 0x20 }
  - { offsetInCU: 0x10E8A, offset: 0x10E8A, size: 0x8, addend: 0x0, symName: __ZNKSt3__16vectorINS0_I4EdgeNS_9allocatorIS1_EEEENS2_IS4_EEE4dataB8ue170006Ev, symObjAddr: 0x3260, symBinAddr: 0x100006C9C, symSize: 0x28 }
  - { offsetInCU: 0x10EB0, offset: 0x10EB0, size: 0x8, addend: 0x0, symName: __ZNKSt3__16vectorINS0_I4EdgeNS_9allocatorIS1_EEEENS2_IS4_EEE8capacityB8ue170006Ev, symObjAddr: 0x3288, symBinAddr: 0x100006CC4, symSize: 0x40 }
  - { offsetInCU: 0x10ED6, offset: 0x10ED6, size: 0x8, addend: 0x0, symName: __ZNKSt3__16vectorINS0_I4EdgeNS_9allocatorIS1_EEEENS2_IS4_EEE9__end_capB8ue170006Ev, symObjAddr: 0x32DC, symBinAddr: 0x100006D18, symSize: 0x28 }
  - { offsetInCU: 0x10EFC, offset: 0x10EFC, size: 0x8, addend: 0x0, symName: __ZNKSt3__117__compressed_pairIPNS_6vectorI4EdgeNS_9allocatorIS2_EEEENS3_IS5_EEE5firstB8ue170006Ev, symObjAddr: 0x3304, symBinAddr: 0x100006D40, symSize: 0x24 }
  - { offsetInCU: 0x10F22, offset: 0x10F22, size: 0x8, addend: 0x0, symName: __ZNKSt3__122__compressed_pair_elemIPNS_6vectorI4EdgeNS_9allocatorIS2_EEEELi0ELb0EE5__getB8ue170006Ev, symObjAddr: 0x3328, symBinAddr: 0x100006D64, symSize: 0x14 }
  - { offsetInCU: 0x10F61, offset: 0x10F61, size: 0x8, addend: 0x0, symName: __ZNSt3__16vectorINS0_I4EdgeNS_9allocatorIS1_EEEENS2_IS4_EEE21_ConstructTransactionC1B8ue170006ERS6_m, symObjAddr: 0x333C, symBinAddr: 0x100006D78, symSize: 0x3C }
  - { offsetInCU: 0x10FA9, offset: 0x10FA9, size: 0x8, addend: 0x0, symName: __ZNSt3__116allocator_traitsINS_9allocatorINS_6vectorI4EdgeNS1_IS3_EEEEEEE9constructB8ue170006IS5_JEvEEvRS6_PT_DpOT0_, symObjAddr: 0x3378, symBinAddr: 0x100006DB4, symSize: 0x2C }
  - { offsetInCU: 0x10FEB, offset: 0x10FEB, size: 0x8, addend: 0x0, symName: __ZNSt3__16vectorINS0_I4EdgeNS_9allocatorIS1_EEEENS2_IS4_EEE21_ConstructTransactionD1B8ue170006Ev, symObjAddr: 0x33A4, symBinAddr: 0x100006DE0, symSize: 0x2C }
  - { offsetInCU: 0x11015, offset: 0x11015, size: 0x8, addend: 0x0, symName: __ZNSt3__16vectorINS0_I4EdgeNS_9allocatorIS1_EEEENS2_IS4_EEE21_ConstructTransactionC2B8ue170006ERS6_m, symObjAddr: 0x33D0, symBinAddr: 0x100006E0C, symSize: 0x4C }
  - { offsetInCU: 0x1105D, offset: 0x1105D, size: 0x8, addend: 0x0, symName: __ZNSt3__19allocatorINS_6vectorI4EdgeNS0_IS2_EEEEE9constructB8ue170006IS4_JEEEvPT_DpOT0_, symObjAddr: 0x341C, symBinAddr: 0x100006E58, symSize: 0x28 }
  - { offsetInCU: 0x1109F, offset: 0x1109F, size: 0x8, addend: 0x0, symName: __ZNSt3__16vectorI4EdgeNS_9allocatorIS1_EEEC1B8ue170006Ev, symObjAddr: 0x3444, symBinAddr: 0x100006E80, symSize: 0x2C }
  - { offsetInCU: 0x110C9, offset: 0x110C9, size: 0x8, addend: 0x0, symName: __ZNSt3__16vectorI4EdgeNS_9allocatorIS1_EEEC2B8ue170006Ev, symObjAddr: 0x3470, symBinAddr: 0x100006EAC, symSize: 0x44 }
  - { offsetInCU: 0x110F3, offset: 0x110F3, size: 0x8, addend: 0x0, symName: __ZNSt3__117__compressed_pairIP4EdgeNS_9allocatorIS1_EEEC1B8ue170006IDnNS_18__default_init_tagEEEOT_OT0_, symObjAddr: 0x34B4, symBinAddr: 0x100006EF0, symSize: 0x3C }
  - { offsetInCU: 0x1114B, offset: 0x1114B, size: 0x8, addend: 0x0, symName: __ZNSt3__117__compressed_pairIP4EdgeNS_9allocatorIS1_EEEC2B8ue170006IDnNS_18__default_init_tagEEEOT_OT0_, symObjAddr: 0x34F0, symBinAddr: 0x100006F2C, symSize: 0x40 }
  - { offsetInCU: 0x111A3, offset: 0x111A3, size: 0x8, addend: 0x0, symName: __ZNSt3__122__compressed_pair_elemIP4EdgeLi0ELb0EEC2B8ue170006IDnvEEOT_, symObjAddr: 0x3530, symBinAddr: 0x100006F6C, symSize: 0x1C }
  - { offsetInCU: 0x111E5, offset: 0x111E5, size: 0x8, addend: 0x0, symName: __ZNSt3__122__compressed_pair_elemINS_9allocatorI4EdgeEELi1ELb1EEC2B8ue170006ENS_18__default_init_tagE, symObjAddr: 0x354C, symBinAddr: 0x100006F88, symSize: 0x2C }
  - { offsetInCU: 0x1121A, offset: 0x1121A, size: 0x8, addend: 0x0, symName: __ZNSt3__19allocatorI4EdgeEC2B8ue170006Ev, symObjAddr: 0x3578, symBinAddr: 0x100006FB4, symSize: 0x2C }
  - { offsetInCU: 0x11244, offset: 0x11244, size: 0x8, addend: 0x0, symName: __ZNSt3__116__non_trivial_ifILb1ENS_9allocatorI4EdgeEEEC2B8ue170006Ev, symObjAddr: 0x35A4, symBinAddr: 0x100006FE0, symSize: 0x14 }
  - { offsetInCU: 0x1126E, offset: 0x1126E, size: 0x8, addend: 0x0, symName: __ZNSt3__16vectorINS0_I4EdgeNS_9allocatorIS1_EEEENS2_IS4_EEE21_ConstructTransactionD2B8ue170006Ev, symObjAddr: 0x35B8, symBinAddr: 0x100006FF4, symSize: 0x20 }
  - { offsetInCU: 0x11298, offset: 0x11298, size: 0x8, addend: 0x0, symName: __ZNSt3__128__exception_guard_exceptionsINS_6vectorINS1_I4EdgeNS_9allocatorIS2_EEEENS3_IS5_EEE16__destroy_vectorEED2B8ue170006Ev, symObjAddr: 0x35D8, symBinAddr: 0x100007014, symSize: 0x48 }
  - { offsetInCU: 0x112C2, offset: 0x112C2, size: 0x8, addend: 0x0, symName: __ZNSt3__16vectorINS0_I4EdgeNS_9allocatorIS1_EEEENS2_IS4_EEE16__destroy_vectorclB8ue170006Ev, symObjAddr: 0x3620, symBinAddr: 0x10000705C, symSize: 0x90 }
  - { offsetInCU: 0x112E8, offset: 0x112E8, size: 0x8, addend: 0x0, symName: __ZNSt3__16vectorINS0_I4EdgeNS_9allocatorIS1_EEEENS2_IS4_EEE7__clearB8ue170006Ev, symObjAddr: 0x36B0, symBinAddr: 0x1000070EC, symSize: 0x28 }
  - { offsetInCU: 0x1130E, offset: 0x1130E, size: 0x8, addend: 0x0, symName: __ZNKSt3__16vectorINS0_I4EdgeNS_9allocatorIS1_EEEENS2_IS4_EEE17__annotate_deleteB8ue170006Ev, symObjAddr: 0x36D8, symBinAddr: 0x100007114, symSize: 0xD4 }
  - { offsetInCU: 0x11334, offset: 0x11334, size: 0x8, addend: 0x0, symName: __ZNSt3__116allocator_traitsINS_9allocatorINS_6vectorI4EdgeNS1_IS3_EEEEEEE10deallocateB8ue170006ERS6_PS5_m, symObjAddr: 0x37AC, symBinAddr: 0x1000071E8, symSize: 0x34 }
  - { offsetInCU: 0x11376, offset: 0x11376, size: 0x8, addend: 0x0, symName: __ZNSt3__16vectorINS0_I4EdgeNS_9allocatorIS1_EEEENS2_IS4_EEE22__base_destruct_at_endB8ue170006EPS4_, symObjAddr: 0x37E0, symBinAddr: 0x10000721C, symSize: 0xA0 }
  - { offsetInCU: 0x113BA, offset: 0x113BA, size: 0x8, addend: 0x0, symName: __ZNSt3__116allocator_traitsINS_9allocatorINS_6vectorI4EdgeNS1_IS3_EEEEEEE7destroyB8ue170006IS5_vEEvRS6_PT_, symObjAddr: 0x3880, symBinAddr: 0x1000072BC, symSize: 0x2C }
  - { offsetInCU: 0x113F7, offset: 0x113F7, size: 0x8, addend: 0x0, symName: __ZNSt3__19allocatorINS_6vectorI4EdgeNS0_IS2_EEEEE7destroyB8ue170006EPS4_, symObjAddr: 0x38AC, symBinAddr: 0x1000072E8, symSize: 0x28 }
  - { offsetInCU: 0x1142B, offset: 0x1142B, size: 0x8, addend: 0x0, symName: __ZNSt3__16vectorI4EdgeNS_9allocatorIS1_EEED1B8ue170006Ev, symObjAddr: 0x38D4, symBinAddr: 0x100007310, symSize: 0x2C }
  - { offsetInCU: 0x11455, offset: 0x11455, size: 0x8, addend: 0x0, symName: __ZNSt3__16vectorI4EdgeNS_9allocatorIS1_EEED2B8ue170006Ev, symObjAddr: 0x3900, symBinAddr: 0x10000733C, symSize: 0x3C }
  - { offsetInCU: 0x1147F, offset: 0x1147F, size: 0x8, addend: 0x0, symName: __ZNSt3__16vectorI4EdgeNS_9allocatorIS1_EEE16__destroy_vectorC1B8ue170006ERS4_, symObjAddr: 0x393C, symBinAddr: 0x100007378, symSize: 0x34 }
  - { offsetInCU: 0x114B8, offset: 0x114B8, size: 0x8, addend: 0x0, symName: __ZNSt3__16vectorI4EdgeNS_9allocatorIS1_EEE16__destroy_vectorclB8ue170006Ev, symObjAddr: 0x3970, symBinAddr: 0x1000073AC, symSize: 0x90 }
  - { offsetInCU: 0x114DE, offset: 0x114DE, size: 0x8, addend: 0x0, symName: __ZNSt3__16vectorI4EdgeNS_9allocatorIS1_EEE16__destroy_vectorC2B8ue170006ERS4_, symObjAddr: 0x3A00, symBinAddr: 0x10000743C, symSize: 0x20 }
  - { offsetInCU: 0x11517, offset: 0x11517, size: 0x8, addend: 0x0, symName: __ZNSt3__16vectorI4EdgeNS_9allocatorIS1_EEE7__clearB8ue170006Ev, symObjAddr: 0x3A20, symBinAddr: 0x10000745C, symSize: 0x28 }
  - { offsetInCU: 0x1153D, offset: 0x1153D, size: 0x8, addend: 0x0, symName: __ZNKSt3__16vectorI4EdgeNS_9allocatorIS1_EEE17__annotate_deleteB8ue170006Ev, symObjAddr: 0x3A48, symBinAddr: 0x100007484, symSize: 0xB8 }
  - { offsetInCU: 0x11563, offset: 0x11563, size: 0x8, addend: 0x0, symName: __ZNSt3__116allocator_traitsINS_9allocatorI4EdgeEEE10deallocateB8ue170006ERS3_PS2_m, symObjAddr: 0x3B00, symBinAddr: 0x10000753C, symSize: 0x34 }
  - { offsetInCU: 0x115A5, offset: 0x115A5, size: 0x8, addend: 0x0, symName: __ZNSt3__16vectorI4EdgeNS_9allocatorIS1_EEE7__allocB8ue170006Ev, symObjAddr: 0x3B34, symBinAddr: 0x100007570, symSize: 0x28 }
  - { offsetInCU: 0x115CB, offset: 0x115CB, size: 0x8, addend: 0x0, symName: __ZNKSt3__16vectorI4EdgeNS_9allocatorIS1_EEE8capacityB8ue170006Ev, symObjAddr: 0x3B5C, symBinAddr: 0x100007598, symSize: 0x40 }
  - { offsetInCU: 0x115F1, offset: 0x115F1, size: 0x8, addend: 0x0, symName: __ZNSt3__16vectorI4EdgeNS_9allocatorIS1_EEE22__base_destruct_at_endB8ue170006EPS1_, symObjAddr: 0x3B9C, symBinAddr: 0x1000075D8, symSize: 0xA0 }
  - { offsetInCU: 0x11635, offset: 0x11635, size: 0x8, addend: 0x0, symName: __ZNSt3__116allocator_traitsINS_9allocatorI4EdgeEEE7destroyB8ue170006IS2_vEEvRS3_PT_, symObjAddr: 0x3C3C, symBinAddr: 0x100007678, symSize: 0x2C }
  - { offsetInCU: 0x11672, offset: 0x11672, size: 0x8, addend: 0x0, symName: __ZNSt3__19allocatorI4EdgeE7destroyB8ue170006EPS1_, symObjAddr: 0x3C7C, symBinAddr: 0x1000076B8, symSize: 0x14 }
  - { offsetInCU: 0x116A6, offset: 0x116A6, size: 0x8, addend: 0x0, symName: __ZNKSt3__16vectorI4EdgeNS_9allocatorIS1_EEE31__annotate_contiguous_containerB8ue170006EPKvS6_S6_S6_, symObjAddr: 0x3C90, symBinAddr: 0x1000076CC, symSize: 0x20 }
  - { offsetInCU: 0x116F8, offset: 0x116F8, size: 0x8, addend: 0x0, symName: __ZNKSt3__16vectorI4EdgeNS_9allocatorIS1_EEE4dataB8ue170006Ev, symObjAddr: 0x3CB0, symBinAddr: 0x1000076EC, symSize: 0x28 }
  - { offsetInCU: 0x1171E, offset: 0x1171E, size: 0x8, addend: 0x0, symName: __ZNKSt3__16vectorI4EdgeNS_9allocatorIS1_EEE4sizeB8ue170006Ev, symObjAddr: 0x3CD8, symBinAddr: 0x100007714, symSize: 0x28 }
  - { offsetInCU: 0x11744, offset: 0x11744, size: 0x8, addend: 0x0, symName: __ZNSt3__19allocatorI4EdgeE10deallocateB8ue170006EPS1_m, symObjAddr: 0x3D00, symBinAddr: 0x10000773C, symSize: 0x70 }
  - { offsetInCU: 0x11786, offset: 0x11786, size: 0x8, addend: 0x0, symName: __ZNSt3__117__compressed_pairIP4EdgeNS_9allocatorIS1_EEE6secondB8ue170006Ev, symObjAddr: 0x3DEC, symBinAddr: 0x100007828, symSize: 0x24 }
  - { offsetInCU: 0x117AC, offset: 0x117AC, size: 0x8, addend: 0x0, symName: __ZNSt3__122__compressed_pair_elemINS_9allocatorI4EdgeEELi1ELb1EE5__getB8ue170006Ev, symObjAddr: 0x3E10, symBinAddr: 0x10000784C, symSize: 0x14 }
  - { offsetInCU: 0x117D2, offset: 0x117D2, size: 0x8, addend: 0x0, symName: __ZNKSt3__16vectorI4EdgeNS_9allocatorIS1_EEE9__end_capB8ue170006Ev, symObjAddr: 0x3E24, symBinAddr: 0x100007860, symSize: 0x28 }
  - { offsetInCU: 0x117F8, offset: 0x117F8, size: 0x8, addend: 0x0, symName: __ZNKSt3__117__compressed_pairIP4EdgeNS_9allocatorIS1_EEE5firstB8ue170006Ev, symObjAddr: 0x3E4C, symBinAddr: 0x100007888, symSize: 0x24 }
  - { offsetInCU: 0x1181E, offset: 0x1181E, size: 0x8, addend: 0x0, symName: __ZNKSt3__122__compressed_pair_elemIP4EdgeLi0ELb0EE5__getB8ue170006Ev, symObjAddr: 0x3E70, symBinAddr: 0x1000078AC, symSize: 0x14 }
  - { offsetInCU: 0x11844, offset: 0x11844, size: 0x8, addend: 0x0, symName: __ZNSt3__19allocatorINS_6vectorI4EdgeNS0_IS2_EEEEE10deallocateB8ue170006EPS4_m, symObjAddr: 0x3E84, symBinAddr: 0x1000078C0, symSize: 0x74 }
  - { offsetInCU: 0x11886, offset: 0x11886, size: 0x8, addend: 0x0, symName: __ZNSt3__16vectorINS0_I4EdgeNS_9allocatorIS1_EEEENS2_IS4_EEED2B8ue170006Ev, symObjAddr: 0x3EF8, symBinAddr: 0x100007934, symSize: 0x3C }
  - { offsetInCU: 0x118B0, offset: 0x118B0, size: 0x8, addend: 0x0, symName: __ZNSt3__16vectorI4EdgeNS_9allocatorIS1_EEE9__end_capB8ue170006Ev, symObjAddr: 0x3F34, symBinAddr: 0x100007970, symSize: 0x28 }
  - { offsetInCU: 0x118DB, offset: 0x118DB, size: 0x8, addend: 0x0, symName: __ZNSt3__16vectorI4EdgeNS_9allocatorIS1_EEE22__construct_one_at_endB8ue170006IJS1_EEEvDpOT_, symObjAddr: 0x3F5C, symBinAddr: 0x100007998, symSize: 0x98 }
  - { offsetInCU: 0x1192A, offset: 0x1192A, size: 0x8, addend: 0x0, symName: __ZNSt3__16vectorI4EdgeNS_9allocatorIS1_EEE21__push_back_slow_pathIS1_EEvOT_, symObjAddr: 0x3FF4, symBinAddr: 0x100007A30, symSize: 0xE0 }
  - { offsetInCU: 0x11987, offset: 0x11987, size: 0x8, addend: 0x0, symName: __ZNSt3__117__compressed_pairIP4EdgeNS_9allocatorIS1_EEE5firstB8ue170006Ev, symObjAddr: 0x40D4, symBinAddr: 0x100007B10, symSize: 0x24 }
  - { offsetInCU: 0x119AD, offset: 0x119AD, size: 0x8, addend: 0x0, symName: __ZNSt3__122__compressed_pair_elemIP4EdgeLi0ELb0EE5__getB8ue170006Ev, symObjAddr: 0x40F8, symBinAddr: 0x100007B34, symSize: 0x14 }
  - { offsetInCU: 0x119EC, offset: 0x119EC, size: 0x8, addend: 0x0, symName: __ZNSt3__16vectorI4EdgeNS_9allocatorIS1_EEE21_ConstructTransactionC1B8ue170006ERS4_m, symObjAddr: 0x410C, symBinAddr: 0x100007B48, symSize: 0x3C }
  - { offsetInCU: 0x11A34, offset: 0x11A34, size: 0x8, addend: 0x0, symName: __ZNSt3__116allocator_traitsINS_9allocatorI4EdgeEEE9constructB8ue170006IS2_JS2_EvEEvRS3_PT_DpOT0_, symObjAddr: 0x4148, symBinAddr: 0x100007B84, symSize: 0x34 }
  - { offsetInCU: 0x11A8B, offset: 0x11A8B, size: 0x8, addend: 0x0, symName: __ZNSt3__16vectorI4EdgeNS_9allocatorIS1_EEE21_ConstructTransactionD1B8ue170006Ev, symObjAddr: 0x417C, symBinAddr: 0x100007BB8, symSize: 0x2C }
  - { offsetInCU: 0x11AB5, offset: 0x11AB5, size: 0x8, addend: 0x0, symName: __ZNSt3__16vectorI4EdgeNS_9allocatorIS1_EEE21_ConstructTransactionC2B8ue170006ERS4_m, symObjAddr: 0x41A8, symBinAddr: 0x100007BE4, symSize: 0x44 }
  - { offsetInCU: 0x11AFD, offset: 0x11AFD, size: 0x8, addend: 0x0, symName: __ZNSt3__19allocatorI4EdgeE9constructB8ue170006IS1_JS1_EEEvPT_DpOT0_, symObjAddr: 0x41EC, symBinAddr: 0x100007C28, symSize: 0x28 }
  - { offsetInCU: 0x11B53, offset: 0x11B53, size: 0x8, addend: 0x0, symName: __ZNSt3__16vectorI4EdgeNS_9allocatorIS1_EEE21_ConstructTransactionD2B8ue170006Ev, symObjAddr: 0x4214, symBinAddr: 0x100007C50, symSize: 0x20 }
  - { offsetInCU: 0x11B7D, offset: 0x11B7D, size: 0x8, addend: 0x0, symName: __ZNKSt3__16vectorI4EdgeNS_9allocatorIS1_EEE11__recommendB8ue170006Em, symObjAddr: 0x4234, symBinAddr: 0x100007C70, symSize: 0xB4 }
  - { offsetInCU: 0x11BD1, offset: 0x11BD1, size: 0x8, addend: 0x0, symName: __ZNSt3__114__split_bufferI4EdgeRNS_9allocatorIS1_EEEC1EmmS4_, symObjAddr: 0x42E8, symBinAddr: 0x100007D24, symSize: 0x44 }
  - { offsetInCU: 0x11C27, offset: 0x11C27, size: 0x8, addend: 0x0, symName: __ZNSt3__114__split_bufferI4EdgeRNS_9allocatorIS1_EEED1Ev, symObjAddr: 0x443C, symBinAddr: 0x100007E78, symSize: 0x2C }
  - { offsetInCU: 0x11C53, offset: 0x11C53, size: 0x8, addend: 0x0, symName: __ZNKSt3__16vectorI4EdgeNS_9allocatorIS1_EEE8max_sizeEv, symObjAddr: 0x4468, symBinAddr: 0x100007EA4, symSize: 0x74 }
  - { offsetInCU: 0x11C7A, offset: 0x11C7A, size: 0x8, addend: 0x0, symName: __ZNKSt3__16vectorI4EdgeNS_9allocatorIS1_EEE20__throw_length_errorB8ue170006Ev, symObjAddr: 0x44DC, symBinAddr: 0x100007F18, symSize: 0x1C }
  - { offsetInCU: 0x11CAA, offset: 0x11CAA, size: 0x8, addend: 0x0, symName: __ZNSt3__116allocator_traitsINS_9allocatorI4EdgeEEE8max_sizeB8ue170006IS3_vEEmRKS3_, symObjAddr: 0x4524, symBinAddr: 0x100007F60, symSize: 0x24 }
  - { offsetInCU: 0x11CD8, offset: 0x11CD8, size: 0x8, addend: 0x0, symName: __ZNKSt3__16vectorI4EdgeNS_9allocatorIS1_EEE7__allocB8ue170006Ev, symObjAddr: 0x4548, symBinAddr: 0x100007F84, symSize: 0x28 }
  - { offsetInCU: 0x11CFE, offset: 0x11CFE, size: 0x8, addend: 0x0, symName: __ZNKSt3__19allocatorI4EdgeE8max_sizeB8ue170006Ev, symObjAddr: 0x4570, symBinAddr: 0x100007FAC, symSize: 0x14 }
  - { offsetInCU: 0x11D24, offset: 0x11D24, size: 0x8, addend: 0x0, symName: __ZNKSt3__117__compressed_pairIP4EdgeNS_9allocatorIS1_EEE6secondB8ue170006Ev, symObjAddr: 0x4584, symBinAddr: 0x100007FC0, symSize: 0x24 }
  - { offsetInCU: 0x11D4A, offset: 0x11D4A, size: 0x8, addend: 0x0, symName: __ZNKSt3__122__compressed_pair_elemINS_9allocatorI4EdgeEELi1ELb1EE5__getB8ue170006Ev, symObjAddr: 0x45A8, symBinAddr: 0x100007FE4, symSize: 0x14 }
  - { offsetInCU: 0x11D70, offset: 0x11D70, size: 0x8, addend: 0x0, symName: __ZNSt3__114__split_bufferI4EdgeRNS_9allocatorIS1_EEEC2EmmS4_, symObjAddr: 0x4610, symBinAddr: 0x10000804C, symSize: 0xD4 }
  - { offsetInCU: 0x11DE4, offset: 0x11DE4, size: 0x8, addend: 0x0, symName: __ZNSt3__117__compressed_pairIP4EdgeRNS_9allocatorIS1_EEEC1B8ue170006IDnS5_EEOT_OT0_, symObjAddr: 0x46E4, symBinAddr: 0x100008120, symSize: 0x3C }
  - { offsetInCU: 0x11E3C, offset: 0x11E3C, size: 0x8, addend: 0x0, symName: __ZNSt3__114__split_bufferI4EdgeRNS_9allocatorIS1_EEE7__allocB8ue170006Ev, symObjAddr: 0x4760, symBinAddr: 0x10000819C, symSize: 0x28 }
  - { offsetInCU: 0x11E62, offset: 0x11E62, size: 0x8, addend: 0x0, symName: __ZNSt3__114__split_bufferI4EdgeRNS_9allocatorIS1_EEE9__end_capB8ue170006Ev, symObjAddr: 0x4788, symBinAddr: 0x1000081C4, symSize: 0x28 }
  - { offsetInCU: 0x11E88, offset: 0x11E88, size: 0x8, addend: 0x0, symName: __ZNSt3__117__compressed_pairIP4EdgeRNS_9allocatorIS1_EEEC2B8ue170006IDnS5_EEOT_OT0_, symObjAddr: 0x47B0, symBinAddr: 0x1000081EC, symSize: 0x48 }
  - { offsetInCU: 0x11EE0, offset: 0x11EE0, size: 0x8, addend: 0x0, symName: __ZNSt3__122__compressed_pair_elemIRNS_9allocatorI4EdgeEELi1ELb0EEC2B8ue170006IS4_vEEOT_, symObjAddr: 0x47F8, symBinAddr: 0x100008234, symSize: 0x20 }
  - { offsetInCU: 0x11F22, offset: 0x11F22, size: 0x8, addend: 0x0, symName: __ZNSt3__19allocatorI4EdgeE8allocateB8ue170006Em, symObjAddr: 0x4818, symBinAddr: 0x100008254, symSize: 0x84 }
  - { offsetInCU: 0x11F56, offset: 0x11F56, size: 0x8, addend: 0x0, symName: __ZNSt3__117__compressed_pairIP4EdgeRNS_9allocatorIS1_EEE6secondB8ue170006Ev, symObjAddr: 0x489C, symBinAddr: 0x1000082D8, symSize: 0x28 }
  - { offsetInCU: 0x11F7C, offset: 0x11F7C, size: 0x8, addend: 0x0, symName: __ZNSt3__122__compressed_pair_elemIRNS_9allocatorI4EdgeEELi1ELb0EE5__getB8ue170006Ev, symObjAddr: 0x48C4, symBinAddr: 0x100008300, symSize: 0x18 }
  - { offsetInCU: 0x11FA2, offset: 0x11FA2, size: 0x8, addend: 0x0, symName: __ZNSt3__117__compressed_pairIP4EdgeRNS_9allocatorIS1_EEE5firstB8ue170006Ev, symObjAddr: 0x48DC, symBinAddr: 0x100008318, symSize: 0x24 }
  - { offsetInCU: 0x11FC8, offset: 0x11FC8, size: 0x8, addend: 0x0, symName: __ZNSt3__116reverse_iteratorIP4EdgeEC1B8ue170006ES2_, symObjAddr: 0x49E8, symBinAddr: 0x100008424, symSize: 0x34 }
  - { offsetInCU: 0x12000, offset: 0x12000, size: 0x8, addend: 0x0, symName: __ZNKSt3__116reverse_iteratorIP4EdgeE4baseB8ue170006Ev, symObjAddr: 0x4A1C, symBinAddr: 0x100008458, symSize: 0x18 }
  - { offsetInCU: 0x12026, offset: 0x12026, size: 0x8, addend: 0x0, symName: __ZNKSt3__16vectorI4EdgeNS_9allocatorIS1_EEE14__annotate_newB8ue170006Em, symObjAddr: 0x4A70, symBinAddr: 0x1000084AC, symSize: 0xAC }
  - { offsetInCU: 0x1205B, offset: 0x1205B, size: 0x8, addend: 0x0, symName: __ZNKSt3__116reverse_iteratorIP4EdgeEdeB8ue170006Ev, symObjAddr: 0x4BB4, symBinAddr: 0x1000085F0, symSize: 0x28 }
  - { offsetInCU: 0x1208F, offset: 0x1208F, size: 0x8, addend: 0x0, symName: __ZNSt3__116reverse_iteratorIP4EdgeEppB8ue170006Ev, symObjAddr: 0x4BDC, symBinAddr: 0x100008618, symSize: 0x20 }
  - { offsetInCU: 0x120BA, offset: 0x120BA, size: 0x8, addend: 0x0, symName: __ZNSt3__119__to_address_helperINS_16reverse_iteratorIP4EdgeEEvE6__callB8ue170006ERKS4_, symObjAddr: 0x4C74, symBinAddr: 0x1000086B0, symSize: 0x4C }
  - { offsetInCU: 0x120DD, offset: 0x120DD, size: 0x8, addend: 0x0, symName: __ZNKSt3__116reverse_iteratorIP4EdgeEptB8ue170006Ev, symObjAddr: 0x4CC0, symBinAddr: 0x1000086FC, symSize: 0x24 }
  - { offsetInCU: 0x12126, offset: 0x12126, size: 0x8, addend: 0x0, symName: __ZNKSt3__111__move_loopINS_17_ClassicAlgPolicyEEclB8ue170006INS_16reverse_iteratorIP4EdgeEES7_S7_EENS_4pairIT_T1_EES9_T0_SA_, symObjAddr: 0x4F5C, symBinAddr: 0x100008998, symSize: 0xA0 }
  - { offsetInCU: 0x12191, offset: 0x12191, size: 0x8, addend: 0x0, symName: __ZNSt3__18_IterOpsINS_17_ClassicAlgPolicyEE11__iter_moveB8ue170006IRNS_16reverse_iteratorIP4EdgeEEEENS_9enable_ifIXsr12is_referenceIDTdeclsr3stdE7declvalIRT_EEEEE5valueEDTclsr3stdE4movedeclsr3stdE7declvalISB_EEEEE4typeEOSA_, symObjAddr: 0x515C, symBinAddr: 0x100008B98, symSize: 0x28 }
  - { offsetInCU: 0x121BD, offset: 0x121BD, size: 0x8, addend: 0x0, symName: __ZNSt3__18_IterOpsINS_17_ClassicAlgPolicyEE25__validate_iter_referenceB8ue170006IRNS_16reverse_iteratorIP4EdgeEEEEvv, symObjAddr: 0x5184, symBinAddr: 0x100008BC0, symSize: 0x4 }
  - { offsetInCU: 0x121DB, offset: 0x121DB, size: 0x8, addend: 0x0, symName: __ZNSt3__118__unwrap_iter_implINS_16reverse_iteratorIP4EdgeEELb0EE8__unwrapB8ue170006ES4_, symObjAddr: 0x5188, symBinAddr: 0x100008BC4, symSize: 0x24 }
  - { offsetInCU: 0x121FE, offset: 0x121FE, size: 0x8, addend: 0x0, symName: __ZNSt3__14pairINS_16reverse_iteratorIP4EdgeEES4_EC1B8ue170006ERKS4_S7_, symObjAddr: 0x51AC, symBinAddr: 0x100008BE8, symSize: 0x3C }
  - { offsetInCU: 0x12244, offset: 0x12244, size: 0x8, addend: 0x0, symName: __ZNSt3__14pairINS_16reverse_iteratorIP4EdgeEES4_EC2B8ue170006ERKS4_S7_, symObjAddr: 0x51E8, symBinAddr: 0x100008C24, symSize: 0x34 }
  - { offsetInCU: 0x1228A, offset: 0x1228A, size: 0x8, addend: 0x0, symName: __ZNSt3__118__unwrap_iter_implINS_16reverse_iteratorIP4EdgeEELb0EE8__rewrapB8ue170006ES4_S4_, symObjAddr: 0x521C, symBinAddr: 0x100008C58, symSize: 0x2C }
  - { offsetInCU: 0x122B8, offset: 0x122B8, size: 0x8, addend: 0x0, symName: __ZNSt3__116reverse_iteratorIP4EdgeEC2B8ue170006ES2_, symObjAddr: 0x5248, symBinAddr: 0x100008C84, symSize: 0x28 }
  - { offsetInCU: 0x122F0, offset: 0x122F0, size: 0x8, addend: 0x0, symName: __ZNSt3__114__split_bufferI4EdgeRNS_9allocatorIS1_EEED2Ev, symObjAddr: 0x5270, symBinAddr: 0x100008CAC, symSize: 0x80 }
  - { offsetInCU: 0x1231C, offset: 0x1231C, size: 0x8, addend: 0x0, symName: __ZNSt3__114__split_bufferI4EdgeRNS_9allocatorIS1_EEE5clearB8ue170006Ev, symObjAddr: 0x52F0, symBinAddr: 0x100008D2C, symSize: 0x28 }
  - { offsetInCU: 0x12342, offset: 0x12342, size: 0x8, addend: 0x0, symName: __ZNKSt3__114__split_bufferI4EdgeRNS_9allocatorIS1_EEE8capacityB8ue170006Ev, symObjAddr: 0x5318, symBinAddr: 0x100008D54, symSize: 0x40 }
  - { offsetInCU: 0x12368, offset: 0x12368, size: 0x8, addend: 0x0, symName: __ZNSt3__114__split_bufferI4EdgeRNS_9allocatorIS1_EEE17__destruct_at_endB8ue170006EPS1_, symObjAddr: 0x5358, symBinAddr: 0x100008D94, symSize: 0x2C }
  - { offsetInCU: 0x1239C, offset: 0x1239C, size: 0x8, addend: 0x0, symName: __ZNSt3__114__split_bufferI4EdgeRNS_9allocatorIS1_EEE17__destruct_at_endB8ue170006EPS1_NS_17integral_constantIbLb0EEE, symObjAddr: 0x5384, symBinAddr: 0x100008DC0, symSize: 0x94 }
  - { offsetInCU: 0x123DC, offset: 0x123DC, size: 0x8, addend: 0x0, symName: __ZNKSt3__114__split_bufferI4EdgeRNS_9allocatorIS1_EEE9__end_capB8ue170006Ev, symObjAddr: 0x5418, symBinAddr: 0x100008E54, symSize: 0x28 }
  - { offsetInCU: 0x12402, offset: 0x12402, size: 0x8, addend: 0x0, symName: __ZNKSt3__117__compressed_pairIP4EdgeRNS_9allocatorIS1_EEE5firstB8ue170006Ev, symObjAddr: 0x5440, symBinAddr: 0x100008E7C, symSize: 0x24 }
  - { offsetInCU: 0x12428, offset: 0x12428, size: 0x8, addend: 0x0, symName: __ZNSt3__16vectorIiNS_9allocatorIiEEEC2Em, symObjAddr: 0x5464, symBinAddr: 0x100008EA0, symSize: 0xDC }
  - { offsetInCU: 0x12478, offset: 0x12478, size: 0x8, addend: 0x0, symName: __ZNSt3__117__compressed_pairIPiNS_9allocatorIiEEEC1B8ue170006IDnNS_18__default_init_tagEEEOT_OT0_, symObjAddr: 0x5540, symBinAddr: 0x100008F7C, symSize: 0x3C }
  - { offsetInCU: 0x124D0, offset: 0x124D0, size: 0x8, addend: 0x0, symName: __ZNSt3__16vectorIiNS_9allocatorIiEEE16__destroy_vectorC1B8ue170006ERS3_, symObjAddr: 0x55BC, symBinAddr: 0x100008FF8, symSize: 0x34 }
  - { offsetInCU: 0x12509, offset: 0x12509, size: 0x8, addend: 0x0, symName: __ZNSt3__16vectorIiNS_9allocatorIiEEE11__vallocateB8ue170006Em, symObjAddr: 0x55F0, symBinAddr: 0x10000902C, symSize: 0xAC }
  - { offsetInCU: 0x1254D, offset: 0x1254D, size: 0x8, addend: 0x0, symName: __ZNSt3__16vectorIiNS_9allocatorIiEEE18__construct_at_endEm, symObjAddr: 0x569C, symBinAddr: 0x1000090D8, symSize: 0xD0 }
  - { offsetInCU: 0x125BF, offset: 0x125BF, size: 0x8, addend: 0x0, symName: __ZNSt3__128__exception_guard_exceptionsINS_6vectorIiNS_9allocatorIiEEE16__destroy_vectorEE10__completeB8ue170006Ev, symObjAddr: 0x576C, symBinAddr: 0x1000091A8, symSize: 0x1C }
  - { offsetInCU: 0x125E5, offset: 0x125E5, size: 0x8, addend: 0x0, symName: __ZNSt3__128__exception_guard_exceptionsINS_6vectorIiNS_9allocatorIiEEE16__destroy_vectorEED1B8ue170006Ev, symObjAddr: 0x5788, symBinAddr: 0x1000091C4, symSize: 0x2C }
  - { offsetInCU: 0x1260F, offset: 0x1260F, size: 0x8, addend: 0x0, symName: __ZNSt3__117__compressed_pairIPiNS_9allocatorIiEEEC2B8ue170006IDnNS_18__default_init_tagEEEOT_OT0_, symObjAddr: 0x57B4, symBinAddr: 0x1000091F0, symSize: 0x40 }
  - { offsetInCU: 0x12667, offset: 0x12667, size: 0x8, addend: 0x0, symName: __ZNSt3__122__compressed_pair_elemIPiLi0ELb0EEC2B8ue170006IDnvEEOT_, symObjAddr: 0x57F4, symBinAddr: 0x100009230, symSize: 0x1C }
  - { offsetInCU: 0x126A9, offset: 0x126A9, size: 0x8, addend: 0x0, symName: __ZNSt3__122__compressed_pair_elemINS_9allocatorIiEELi1ELb1EEC2B8ue170006ENS_18__default_init_tagE, symObjAddr: 0x5810, symBinAddr: 0x10000924C, symSize: 0x2C }
  - { offsetInCU: 0x126DE, offset: 0x126DE, size: 0x8, addend: 0x0, symName: __ZNSt3__19allocatorIiEC2B8ue170006Ev, symObjAddr: 0x583C, symBinAddr: 0x100009278, symSize: 0x2C }
  - { offsetInCU: 0x12708, offset: 0x12708, size: 0x8, addend: 0x0, symName: __ZNSt3__116__non_trivial_ifILb1ENS_9allocatorIiEEEC2B8ue170006Ev, symObjAddr: 0x5868, symBinAddr: 0x1000092A4, symSize: 0x14 }
  - { offsetInCU: 0x12732, offset: 0x12732, size: 0x8, addend: 0x0, symName: __ZNSt3__128__exception_guard_exceptionsINS_6vectorIiNS_9allocatorIiEEE16__destroy_vectorEEC1B8ue170006ES5_, symObjAddr: 0x587C, symBinAddr: 0x1000092B8, symSize: 0x34 }
  - { offsetInCU: 0x1276A, offset: 0x1276A, size: 0x8, addend: 0x0, symName: __ZNSt3__128__exception_guard_exceptionsINS_6vectorIiNS_9allocatorIiEEE16__destroy_vectorEEC2B8ue170006ES5_, symObjAddr: 0x58B0, symBinAddr: 0x1000092EC, symSize: 0x24 }
  - { offsetInCU: 0x127A2, offset: 0x127A2, size: 0x8, addend: 0x0, symName: __ZNSt3__16vectorIiNS_9allocatorIiEEE16__destroy_vectorC2B8ue170006ERS3_, symObjAddr: 0x58D4, symBinAddr: 0x100009310, symSize: 0x20 }
  - { offsetInCU: 0x127DB, offset: 0x127DB, size: 0x8, addend: 0x0, symName: __ZNKSt3__16vectorIiNS_9allocatorIiEEE8max_sizeEv, symObjAddr: 0x58F4, symBinAddr: 0x100009330, symSize: 0x74 }
  - { offsetInCU: 0x12802, offset: 0x12802, size: 0x8, addend: 0x0, symName: __ZNKSt3__16vectorIiNS_9allocatorIiEEE20__throw_length_errorB8ue170006Ev, symObjAddr: 0x5968, symBinAddr: 0x1000093A4, symSize: 0x1C }
  - { offsetInCU: 0x12828, offset: 0x12828, size: 0x8, addend: 0x0, symName: __ZNSt3__16vectorIiNS_9allocatorIiEEE7__allocB8ue170006Ev, symObjAddr: 0x59C4, symBinAddr: 0x100009400, symSize: 0x28 }
  - { offsetInCU: 0x1284E, offset: 0x1284E, size: 0x8, addend: 0x0, symName: __ZNSt3__16vectorIiNS_9allocatorIiEEE9__end_capB8ue170006Ev, symObjAddr: 0x59EC, symBinAddr: 0x100009428, symSize: 0x28 }
  - { offsetInCU: 0x12874, offset: 0x12874, size: 0x8, addend: 0x0, symName: __ZNKSt3__16vectorIiNS_9allocatorIiEEE14__annotate_newB8ue170006Em, symObjAddr: 0x5A14, symBinAddr: 0x100009450, symSize: 0xAC }
  - { offsetInCU: 0x128B3, offset: 0x128B3, size: 0x8, addend: 0x0, symName: __ZNSt3__116allocator_traitsINS_9allocatorIiEEE8max_sizeB8ue170006IS2_vEEmRKS2_, symObjAddr: 0x5AC0, symBinAddr: 0x1000094FC, symSize: 0x24 }
  - { offsetInCU: 0x128E1, offset: 0x128E1, size: 0x8, addend: 0x0, symName: __ZNKSt3__16vectorIiNS_9allocatorIiEEE7__allocB8ue170006Ev, symObjAddr: 0x5AE4, symBinAddr: 0x100009520, symSize: 0x28 }
  - { offsetInCU: 0x12907, offset: 0x12907, size: 0x8, addend: 0x0, symName: __ZNKSt3__19allocatorIiE8max_sizeB8ue170006Ev, symObjAddr: 0x5B0C, symBinAddr: 0x100009548, symSize: 0x14 }
  - { offsetInCU: 0x1292D, offset: 0x1292D, size: 0x8, addend: 0x0, symName: __ZNKSt3__117__compressed_pairIPiNS_9allocatorIiEEE6secondB8ue170006Ev, symObjAddr: 0x5B20, symBinAddr: 0x10000955C, symSize: 0x24 }
  - { offsetInCU: 0x12953, offset: 0x12953, size: 0x8, addend: 0x0, symName: __ZNKSt3__122__compressed_pair_elemINS_9allocatorIiEELi1ELb1EE5__getB8ue170006Ev, symObjAddr: 0x5B44, symBinAddr: 0x100009580, symSize: 0x14 }
  - { offsetInCU: 0x12979, offset: 0x12979, size: 0x8, addend: 0x0, symName: __ZNSt3__19allocatorIiE8allocateB8ue170006Em, symObjAddr: 0x5B58, symBinAddr: 0x100009594, symSize: 0x84 }
  - { offsetInCU: 0x129AD, offset: 0x129AD, size: 0x8, addend: 0x0, symName: __ZNSt3__117__compressed_pairIPiNS_9allocatorIiEEE6secondB8ue170006Ev, symObjAddr: 0x5BDC, symBinAddr: 0x100009618, symSize: 0x24 }
  - { offsetInCU: 0x129D3, offset: 0x129D3, size: 0x8, addend: 0x0, symName: __ZNSt3__122__compressed_pair_elemINS_9allocatorIiEELi1ELb1EE5__getB8ue170006Ev, symObjAddr: 0x5C00, symBinAddr: 0x10000963C, symSize: 0x14 }
  - { offsetInCU: 0x129F9, offset: 0x129F9, size: 0x8, addend: 0x0, symName: __ZNSt3__117__compressed_pairIPiNS_9allocatorIiEEE5firstB8ue170006Ev, symObjAddr: 0x5C14, symBinAddr: 0x100009650, symSize: 0x24 }
  - { offsetInCU: 0x12A1F, offset: 0x12A1F, size: 0x8, addend: 0x0, symName: __ZNSt3__122__compressed_pair_elemIPiLi0ELb0EE5__getB8ue170006Ev, symObjAddr: 0x5C38, symBinAddr: 0x100009674, symSize: 0x14 }
  - { offsetInCU: 0x12A45, offset: 0x12A45, size: 0x8, addend: 0x0, symName: __ZNKSt3__16vectorIiNS_9allocatorIiEEE31__annotate_contiguous_containerB8ue170006EPKvS5_S5_S5_, symObjAddr: 0x5C4C, symBinAddr: 0x100009688, symSize: 0x20 }
  - { offsetInCU: 0x12A97, offset: 0x12A97, size: 0x8, addend: 0x0, symName: __ZNKSt3__16vectorIiNS_9allocatorIiEEE4dataB8ue170006Ev, symObjAddr: 0x5C6C, symBinAddr: 0x1000096A8, symSize: 0x28 }
  - { offsetInCU: 0x12ABD, offset: 0x12ABD, size: 0x8, addend: 0x0, symName: __ZNKSt3__16vectorIiNS_9allocatorIiEEE8capacityB8ue170006Ev, symObjAddr: 0x5C94, symBinAddr: 0x1000096D0, symSize: 0x40 }
  - { offsetInCU: 0x12AE3, offset: 0x12AE3, size: 0x8, addend: 0x0, symName: __ZNKSt3__16vectorIiNS_9allocatorIiEEE9__end_capB8ue170006Ev, symObjAddr: 0x5CE8, symBinAddr: 0x100009724, symSize: 0x28 }
  - { offsetInCU: 0x12B09, offset: 0x12B09, size: 0x8, addend: 0x0, symName: __ZNKSt3__117__compressed_pairIPiNS_9allocatorIiEEE5firstB8ue170006Ev, symObjAddr: 0x5D10, symBinAddr: 0x10000974C, symSize: 0x24 }
  - { offsetInCU: 0x12B2F, offset: 0x12B2F, size: 0x8, addend: 0x0, symName: __ZNKSt3__122__compressed_pair_elemIPiLi0ELb0EE5__getB8ue170006Ev, symObjAddr: 0x5D34, symBinAddr: 0x100009770, symSize: 0x14 }
  - { offsetInCU: 0x12B6E, offset: 0x12B6E, size: 0x8, addend: 0x0, symName: __ZNSt3__16vectorIiNS_9allocatorIiEEE21_ConstructTransactionC1B8ue170006ERS3_m, symObjAddr: 0x5D48, symBinAddr: 0x100009784, symSize: 0x3C }
  - { offsetInCU: 0x12BB6, offset: 0x12BB6, size: 0x8, addend: 0x0, symName: __ZNSt3__116allocator_traitsINS_9allocatorIiEEE9constructB8ue170006IiJEvEEvRS2_PT_DpOT0_, symObjAddr: 0x5D84, symBinAddr: 0x1000097C0, symSize: 0x2C }
  - { offsetInCU: 0x12BF8, offset: 0x12BF8, size: 0x8, addend: 0x0, symName: __ZNSt3__16vectorIiNS_9allocatorIiEEE21_ConstructTransactionD1B8ue170006Ev, symObjAddr: 0x5DB0, symBinAddr: 0x1000097EC, symSize: 0x2C }
  - { offsetInCU: 0x12C22, offset: 0x12C22, size: 0x8, addend: 0x0, symName: __ZNSt3__16vectorIiNS_9allocatorIiEEE21_ConstructTransactionC2B8ue170006ERS3_m, symObjAddr: 0x5DDC, symBinAddr: 0x100009818, symSize: 0x44 }
  - { offsetInCU: 0x12C6A, offset: 0x12C6A, size: 0x8, addend: 0x0, symName: __ZNSt3__19allocatorIiE9constructB8ue170006IiJEEEvPT_DpOT0_, symObjAddr: 0x5E20, symBinAddr: 0x10000985C, symSize: 0x1C }
  - { offsetInCU: 0x12CAC, offset: 0x12CAC, size: 0x8, addend: 0x0, symName: __ZNSt3__16vectorIiNS_9allocatorIiEEE21_ConstructTransactionD2B8ue170006Ev, symObjAddr: 0x5E3C, symBinAddr: 0x100009878, symSize: 0x20 }
  - { offsetInCU: 0x12CD6, offset: 0x12CD6, size: 0x8, addend: 0x0, symName: __ZNSt3__128__exception_guard_exceptionsINS_6vectorIiNS_9allocatorIiEEE16__destroy_vectorEED2B8ue170006Ev, symObjAddr: 0x5E5C, symBinAddr: 0x100009898, symSize: 0x48 }
  - { offsetInCU: 0x12D00, offset: 0x12D00, size: 0x8, addend: 0x0, symName: __ZNSt3__16vectorIiNS_9allocatorIiEEE16__destroy_vectorclB8ue170006Ev, symObjAddr: 0x5EA4, symBinAddr: 0x1000098E0, symSize: 0x90 }
  - { offsetInCU: 0x12D26, offset: 0x12D26, size: 0x8, addend: 0x0, symName: __ZNSt3__16vectorIiNS_9allocatorIiEEE7__clearB8ue170006Ev, symObjAddr: 0x5F34, symBinAddr: 0x100009970, symSize: 0x28 }
  - { offsetInCU: 0x12D4C, offset: 0x12D4C, size: 0x8, addend: 0x0, symName: __ZNKSt3__16vectorIiNS_9allocatorIiEEE17__annotate_deleteB8ue170006Ev, symObjAddr: 0x5F5C, symBinAddr: 0x100009998, symSize: 0xB8 }
  - { offsetInCU: 0x12D72, offset: 0x12D72, size: 0x8, addend: 0x0, symName: __ZNSt3__116allocator_traitsINS_9allocatorIiEEE10deallocateB8ue170006ERS2_Pim, symObjAddr: 0x6014, symBinAddr: 0x100009A50, symSize: 0x34 }
  - { offsetInCU: 0x12DB4, offset: 0x12DB4, size: 0x8, addend: 0x0, symName: __ZNSt3__16vectorIiNS_9allocatorIiEEE22__base_destruct_at_endB8ue170006EPi, symObjAddr: 0x6048, symBinAddr: 0x100009A84, symSize: 0xA0 }
  - { offsetInCU: 0x12DF8, offset: 0x12DF8, size: 0x8, addend: 0x0, symName: __ZNSt3__116allocator_traitsINS_9allocatorIiEEE7destroyB8ue170006IivEEvRS2_PT_, symObjAddr: 0x60E8, symBinAddr: 0x100009B24, symSize: 0x2C }
  - { offsetInCU: 0x12E35, offset: 0x12E35, size: 0x8, addend: 0x0, symName: __ZNSt3__19allocatorIiE7destroyB8ue170006EPi, symObjAddr: 0x6114, symBinAddr: 0x100009B50, symSize: 0x14 }
  - { offsetInCU: 0x12E69, offset: 0x12E69, size: 0x8, addend: 0x0, symName: __ZNSt3__19allocatorIiE10deallocateB8ue170006EPim, symObjAddr: 0x6128, symBinAddr: 0x100009B64, symSize: 0x70 }
  - { offsetInCU: 0x12EAB, offset: 0x12EAB, size: 0x8, addend: 0x0, symName: __ZNSt3__16vectorIiNS_9allocatorIiEEED2B8ue170006Ev, symObjAddr: 0x6198, symBinAddr: 0x100009BD4, symSize: 0x3C }
  - { offsetInCU: 0x12ED5, offset: 0x12ED5, size: 0x8, addend: 0x0, symName: __ZNKSt3__16vectorI4EdgeNS_9allocatorIS1_EEE11__make_iterB8ue170006EPKS1_, symObjAddr: 0x61D4, symBinAddr: 0x100009C10, symSize: 0x30 }
  - { offsetInCU: 0x12F0A, offset: 0x12F0A, size: 0x8, addend: 0x0, symName: __ZNSt3__111__wrap_iterIPK4EdgeEC1B8ue170006ES3_, symObjAddr: 0x6204, symBinAddr: 0x100009C40, symSize: 0x34 }
  - { offsetInCU: 0x12F42, offset: 0x12F42, size: 0x8, addend: 0x0, symName: __ZNSt3__111__wrap_iterIPK4EdgeEC2B8ue170006ES3_, symObjAddr: 0x6238, symBinAddr: 0x100009C74, symSize: 0x20 }
  - { offsetInCU: 0x12F7A, offset: 0x12F7A, size: 0x8, addend: 0x0, symName: __ZNKSt3__111__wrap_iterIPK4EdgeE4baseB8ue170006Ev, symObjAddr: 0x62A0, symBinAddr: 0x100009CDC, symSize: 0x18 }
  - { offsetInCU: 0x12FA0, offset: 0x12FA0, size: 0x8, addend: 0x0, symName: __ZNSt3__16vectorI4EdgeNS_9allocatorIS1_EEE11__make_iterB8ue170006EPS1_, symObjAddr: 0x62B8, symBinAddr: 0x100009CF4, symSize: 0x30 }
  - { offsetInCU: 0x12FD5, offset: 0x12FD5, size: 0x8, addend: 0x0, symName: __ZNSt3__111__wrap_iterIP4EdgeEC1B8ue170006ES2_, symObjAddr: 0x62E8, symBinAddr: 0x100009D24, symSize: 0x34 }
  - { offsetInCU: 0x1300D, offset: 0x1300D, size: 0x8, addend: 0x0, symName: __ZNSt3__111__wrap_iterIP4EdgeEC2B8ue170006ES2_, symObjAddr: 0x631C, symBinAddr: 0x100009D58, symSize: 0x20 }
  - { offsetInCU: 0x13045, offset: 0x13045, size: 0x8, addend: 0x0, symName: __ZNKSt3__111__wrap_iterIP4EdgeE4baseB8ue170006Ev, symObjAddr: 0x6384, symBinAddr: 0x100009DC0, symSize: 0x18 }
  - { offsetInCU: 0x1306B, offset: 0x1306B, size: 0x8, addend: 0x0, symName: __ZNSt3__16vectorIiNS_9allocatorIiEEEC2ERKS3_, symObjAddr: 0x639C, symBinAddr: 0x100009DD8, symSize: 0x94 }
  - { offsetInCU: 0x130A6, offset: 0x130A6, size: 0x8, addend: 0x0, symName: __ZNSt3__116allocator_traitsINS_9allocatorIiEEE37select_on_container_copy_constructionB8ue170006IS2_vvEES2_RKS2_, symObjAddr: 0x6430, symBinAddr: 0x100009E6C, symSize: 0x10 }
  - { offsetInCU: 0x130DA, offset: 0x130DA, size: 0x8, addend: 0x0, symName: __ZNSt3__117__compressed_pairIPiNS_9allocatorIiEEEC1B8ue170006IDnS3_EEOT_OT0_, symObjAddr: 0x6440, symBinAddr: 0x100009E7C, symSize: 0x3C }
  - { offsetInCU: 0x13132, offset: 0x13132, size: 0x8, addend: 0x0, symName: __ZNSt3__16vectorIiNS_9allocatorIiEEE16__init_with_sizeB8ue170006IPiS5_EEvT_T0_m, symObjAddr: 0x647C, symBinAddr: 0x100009EB8, symSize: 0xC0 }
  - { offsetInCU: 0x131A6, offset: 0x131A6, size: 0x8, addend: 0x0, symName: __ZNSt3__117__compressed_pairIPiNS_9allocatorIiEEEC2B8ue170006IDnS3_EEOT_OT0_, symObjAddr: 0x653C, symBinAddr: 0x100009F78, symSize: 0x44 }
  - { offsetInCU: 0x131FE, offset: 0x131FE, size: 0x8, addend: 0x0, symName: __ZNSt3__122__compressed_pair_elemINS_9allocatorIiEELi1ELb1EEC2B8ue170006IS2_vEEOT_, symObjAddr: 0x6580, symBinAddr: 0x100009FBC, symSize: 0x18 }
  - { offsetInCU: 0x13240, offset: 0x13240, size: 0x8, addend: 0x0, symName: __ZNSt3__16vectorIiNS_9allocatorIiEEE18__construct_at_endIPiS5_EEvT_T0_m, symObjAddr: 0x6598, symBinAddr: 0x100009FD4, symSize: 0x94 }
  - { offsetInCU: 0x132CE, offset: 0x132CE, size: 0x8, addend: 0x0, symName: __ZNSt3__14pairIPiS1_EC1B8ue170006ERKS1_S4_, symObjAddr: 0x68B4, symBinAddr: 0x10000A2F0, symSize: 0x3C }
  - { offsetInCU: 0x13314, offset: 0x13314, size: 0x8, addend: 0x0, symName: __ZNSt3__14pairIPiS1_EC2B8ue170006ERKS1_S4_, symObjAddr: 0x68F0, symBinAddr: 0x10000A32C, symSize: 0x34 }
  - { offsetInCU: 0x1335A, offset: 0x1335A, size: 0x8, addend: 0x0, symName: __ZNSt3__129_AllocatorDestroyRangeReverseINS_9allocatorIiEEPiEC1B8ue170006ERS2_RS3_S6_, symObjAddr: 0x6970, symBinAddr: 0x10000A3AC, symSize: 0x44 }
  - { offsetInCU: 0x133B1, offset: 0x133B1, size: 0x8, addend: 0x0, symName: __ZNSt3__116allocator_traitsINS_9allocatorIiEEE9constructB8ue170006IiJRiEvEEvRS2_PT_DpOT0_, symObjAddr: 0x69B4, symBinAddr: 0x10000A3F0, symSize: 0x34 }
  - { offsetInCU: 0x13408, offset: 0x13408, size: 0x8, addend: 0x0, symName: __ZNSt3__128__exception_guard_exceptionsINS_29_AllocatorDestroyRangeReverseINS_9allocatorIiEEPiEEE10__completeB8ue170006Ev, symObjAddr: 0x69E8, symBinAddr: 0x10000A424, symSize: 0x1C }
  - { offsetInCU: 0x1342E, offset: 0x1342E, size: 0x8, addend: 0x0, symName: __ZNSt3__128__exception_guard_exceptionsINS_29_AllocatorDestroyRangeReverseINS_9allocatorIiEEPiEEED1B8ue170006Ev, symObjAddr: 0x6A04, symBinAddr: 0x10000A440, symSize: 0x2C }
  - { offsetInCU: 0x13458, offset: 0x13458, size: 0x8, addend: 0x0, symName: __ZNSt3__128__exception_guard_exceptionsINS_29_AllocatorDestroyRangeReverseINS_9allocatorIiEEPiEEEC1B8ue170006ES5_, symObjAddr: 0x6A30, symBinAddr: 0x10000A46C, symSize: 0x34 }
  - { offsetInCU: 0x13491, offset: 0x13491, size: 0x8, addend: 0x0, symName: __ZNSt3__128__exception_guard_exceptionsINS_29_AllocatorDestroyRangeReverseINS_9allocatorIiEEPiEEEC2B8ue170006ES5_, symObjAddr: 0x6A64, symBinAddr: 0x10000A4A0, symSize: 0x30 }
  - { offsetInCU: 0x134CA, offset: 0x134CA, size: 0x8, addend: 0x0, symName: __ZNSt3__129_AllocatorDestroyRangeReverseINS_9allocatorIiEEPiEC2B8ue170006ERS2_RS3_S6_, symObjAddr: 0x6A94, symBinAddr: 0x10000A4D0, symSize: 0x38 }
  - { offsetInCU: 0x13521, offset: 0x13521, size: 0x8, addend: 0x0, symName: __ZNSt3__19allocatorIiE9constructB8ue170006IiJRiEEEvPT_DpOT0_, symObjAddr: 0x6ACC, symBinAddr: 0x10000A508, symSize: 0x28 }
  - { offsetInCU: 0x13577, offset: 0x13577, size: 0x8, addend: 0x0, symName: __ZNSt3__128__exception_guard_exceptionsINS_29_AllocatorDestroyRangeReverseINS_9allocatorIiEEPiEEED2B8ue170006Ev, symObjAddr: 0x6AF4, symBinAddr: 0x10000A530, symSize: 0x48 }
  - { offsetInCU: 0x135A1, offset: 0x135A1, size: 0x8, addend: 0x0, symName: __ZNKSt3__129_AllocatorDestroyRangeReverseINS_9allocatorIiEEPiEclB8ue170006Ev, symObjAddr: 0x6B3C, symBinAddr: 0x10000A578, symSize: 0x68 }
  - { offsetInCU: 0x135C7, offset: 0x135C7, size: 0x8, addend: 0x0, symName: __ZNSt3__116reverse_iteratorIPiEC1B8ue170006ES1_, symObjAddr: 0x6C14, symBinAddr: 0x10000A650, symSize: 0x34 }
  - { offsetInCU: 0x135FF, offset: 0x135FF, size: 0x8, addend: 0x0, symName: __ZNSt3__116reverse_iteratorIPiEppB8ue170006Ev, symObjAddr: 0x6CB4, symBinAddr: 0x10000A6F0, symSize: 0x20 }
  - { offsetInCU: 0x13625, offset: 0x13625, size: 0x8, addend: 0x0, symName: __ZNKSt3__116reverse_iteratorIPiE4baseB8ue170006Ev, symObjAddr: 0x6CD4, symBinAddr: 0x10000A710, symSize: 0x18 }
  - { offsetInCU: 0x13650, offset: 0x13650, size: 0x8, addend: 0x0, symName: __ZNSt3__119__to_address_helperINS_16reverse_iteratorIPiEEvE6__callB8ue170006ERKS3_, symObjAddr: 0x6CEC, symBinAddr: 0x10000A728, symSize: 0x4C }
  - { offsetInCU: 0x13673, offset: 0x13673, size: 0x8, addend: 0x0, symName: __ZNKSt3__116reverse_iteratorIPiEptB8ue170006Ev, symObjAddr: 0x6D38, symBinAddr: 0x10000A774, symSize: 0x24 }
  - { offsetInCU: 0x13699, offset: 0x13699, size: 0x8, addend: 0x0, symName: __ZNKSt3__116reverse_iteratorIPiEdeB8ue170006Ev, symObjAddr: 0x6D5C, symBinAddr: 0x10000A798, symSize: 0x28 }
  - { offsetInCU: 0x136CD, offset: 0x136CD, size: 0x8, addend: 0x0, symName: __ZNSt3__116reverse_iteratorIPiEC2B8ue170006ES1_, symObjAddr: 0x6D84, symBinAddr: 0x10000A7C0, symSize: 0x28 }
  - { offsetInCU: 0x13705, offset: 0x13705, size: 0x8, addend: 0x0, symName: __ZNSt3__118__unwrap_iter_implIPiLb1EE8__unwrapB8ue170006ES1_, symObjAddr: 0x6DAC, symBinAddr: 0x10000A7E8, symSize: 0x24 }
  - { offsetInCU: 0x13728, offset: 0x13728, size: 0x8, addend: 0x0, symName: __ZNSt3__118__unwrap_iter_implIPiLb1EE8__rewrapB8ue170006ES1_S1_, symObjAddr: 0x6DD0, symBinAddr: 0x10000A80C, symSize: 0x50 }
  - { offsetInCU: 0x13759, offset: 0x13759, size: 0x8, addend: 0x0, symName: __ZNKSt3__19basic_iosIcNS_11char_traitsIcEEE5widenB8ue170006Ec, symObjAddr: 0x6E20, symBinAddr: 0x10000A85C, symSize: 0x8C }
  - { offsetInCU: 0x137C1, offset: 0x137C1, size: 0x8, addend: 0x0, symName: __ZNKSt3__15ctypeIcE5widenB8ue170006Ec, symObjAddr: 0x6ED8, symBinAddr: 0x10000A914, symSize: 0x38 }
  - { offsetInCU: 0x13814, offset: 0x13814, size: 0x8, addend: 0x0, symName: __ZNKSt3__113basic_ostreamIcNS_11char_traitsIcEEE6sentrycvbB8ue170006Ev, symObjAddr: 0x7104, symBinAddr: 0x10000AB40, symSize: 0x1C }
  - { offsetInCU: 0x1383A, offset: 0x1383A, size: 0x8, addend: 0x0, symName: __ZNSt3__119ostreambuf_iteratorIcNS_11char_traitsIcEEEC1B8ue170006ERNS_13basic_ostreamIcS2_EE, symObjAddr: 0x7368, symBinAddr: 0x10000ADA4, symSize: 0x34 }
  - { offsetInCU: 0x13872, offset: 0x13872, size: 0x8, addend: 0x0, symName: __ZNKSt3__18ios_base5flagsB8ue170006Ev, symObjAddr: 0x739C, symBinAddr: 0x10000ADD8, symSize: 0x18 }
  - { offsetInCU: 0x1389A, offset: 0x1389A, size: 0x8, addend: 0x0, symName: __ZNKSt3__19basic_iosIcNS_11char_traitsIcEEE4fillB8ue170006Ev, symObjAddr: 0x73B4, symBinAddr: 0x10000ADF0, symSize: 0x64 }
  - { offsetInCU: 0x138C1, offset: 0x138C1, size: 0x8, addend: 0x0, symName: __ZNKSt3__119ostreambuf_iteratorIcNS_11char_traitsIcEEE6failedB8ue170006Ev, symObjAddr: 0x7418, symBinAddr: 0x10000AE54, symSize: 0x24 }
  - { offsetInCU: 0x138E7, offset: 0x138E7, size: 0x8, addend: 0x0, symName: __ZNKSt3__18ios_base5widthB8ue170006Ev, symObjAddr: 0x743C, symBinAddr: 0x10000AE78, symSize: 0x18 }
  - { offsetInCU: 0x1390F, offset: 0x1390F, size: 0x8, addend: 0x0, symName: __ZNSt3__115basic_streambufIcNS_11char_traitsIcEEE5sputnB8ue170006EPKcl, symObjAddr: 0x7454, symBinAddr: 0x10000AE90, symSize: 0x3C }
  - { offsetInCU: 0x13951, offset: 0x13951, size: 0x8, addend: 0x0, symName: __ZNSt3__112basic_stringIcNS_11char_traitsIcEENS_9allocatorIcEEEC1B8ue170006Emc, symObjAddr: 0x7490, symBinAddr: 0x10000AECC, symSize: 0x3C }
  - { offsetInCU: 0x13999, offset: 0x13999, size: 0x8, addend: 0x0, symName: __ZNSt3__18ios_base5widthB8ue170006El, symObjAddr: 0x74CC, symBinAddr: 0x10000AF08, symSize: 0x2C }
  - { offsetInCU: 0x139DF, offset: 0x139DF, size: 0x8, addend: 0x0, symName: __ZNSt3__112basic_stringIcNS_11char_traitsIcEENS_9allocatorIcEEEC2B8ue170006Emc, symObjAddr: 0x74F8, symBinAddr: 0x10000AF34, symSize: 0x4C }
  - { offsetInCU: 0x13A27, offset: 0x13A27, size: 0x8, addend: 0x0, symName: __ZNSt3__119ostreambuf_iteratorIcNS_11char_traitsIcEEEC2B8ue170006ERNS_13basic_ostreamIcS2_EE, symObjAddr: 0x7544, symBinAddr: 0x10000AF80, symSize: 0x68 }
  - { offsetInCU: 0x13A5F, offset: 0x13A5F, size: 0x8, addend: 0x0, symName: __ZNKSt3__19basic_iosIcNS_11char_traitsIcEEE5rdbufB8ue170006Ev, symObjAddr: 0x75AC, symBinAddr: 0x10000AFE8, symSize: 0x24 }
  - { offsetInCU: 0x13A86, offset: 0x13A86, size: 0x8, addend: 0x0, symName: __ZNKSt3__18ios_base5rdbufB8ue170006Ev, symObjAddr: 0x75D0, symBinAddr: 0x10000B00C, symSize: 0x18 }
  - { offsetInCU: 0x13AAC, offset: 0x13AAC, size: 0x8, addend: 0x0, symName: __ZNSt3__111char_traitsIcE11eq_int_typeB8ue170006Eii, symObjAddr: 0x75E8, symBinAddr: 0x10000B024, symSize: 0x28 }
  - { offsetInCU: 0x13ADF, offset: 0x13ADF, size: 0x8, addend: 0x0, symName: __ZNSt3__16vectorIiNS_9allocatorIiEEE13__move_assignERS3_NS_17integral_constantIbLb1EEE, symObjAddr: 0x7610, symBinAddr: 0x10000B04C, symSize: 0x94 }
  - { offsetInCU: 0x13B20, offset: 0x13B20, size: 0x8, addend: 0x0, symName: __ZNSt3__16vectorIiNS_9allocatorIiEEE13__vdeallocateEv, symObjAddr: 0x76A4, symBinAddr: 0x10000B0E0, symSize: 0x94 }
  - { offsetInCU: 0x13B47, offset: 0x13B47, size: 0x8, addend: 0x0, symName: __ZNSt3__16vectorIiNS_9allocatorIiEEE19__move_assign_allocB8ue170006ERS3_, symObjAddr: 0x7738, symBinAddr: 0x10000B174, symSize: 0x2C }
  - { offsetInCU: 0x13B7C, offset: 0x13B7C, size: 0x8, addend: 0x0, symName: __ZNSt3__16vectorIiNS_9allocatorIiEEE5clearB8ue170006Ev, symObjAddr: 0x7764, symBinAddr: 0x10000B1A0, symSize: 0x44 }
  - { offsetInCU: 0x13BB1, offset: 0x13BB1, size: 0x8, addend: 0x0, symName: __ZNKSt3__16vectorIiNS_9allocatorIiEEE17__annotate_shrinkB8ue170006Em, symObjAddr: 0x77A8, symBinAddr: 0x10000B1E4, symSize: 0xB4 }
  - { offsetInCU: 0x13BE6, offset: 0x13BE6, size: 0x8, addend: 0x0, symName: __ZNSt3__16vectorIiNS_9allocatorIiEEE19__move_assign_allocB8ue170006ERS3_NS_17integral_constantIbLb1EEE, symObjAddr: 0x785C, symBinAddr: 0x10000B298, symSize: 0x38 }
...
